ARM GAS  C:\Users\GONZAL~1\AppData\Local\Temp\ccgACUFw.s 			page 1


   1              		.syntax unified
   2              		.cpu cortex-m3
   3              		.fpu softvfp
   4              		.eabi_attribute 20, 1
   5              		.eabi_attribute 21, 1
   6              		.eabi_attribute 23, 3
   7              		.eabi_attribute 24, 1
   8              		.eabi_attribute 25, 1
   9              		.eabi_attribute 26, 1
  10              		.eabi_attribute 30, 1
  11              		.eabi_attribute 34, 1
  12              		.eabi_attribute 18, 4
  13              		.thumb
  14              		.syntax unified
  15              		.file	"angle_control_isr.c"
  16              		.text
  17              	.Ltext0:
  18              		.cfi_sections	.debug_frame
  19              		.global	__aeabi_i2d
  20              		.global	__aeabi_d2iz
  21              		.section	.text.angle_control_isr_Interrupt,"ax",%progbits
  22              		.align	2
  23              		.global	angle_control_isr_Interrupt
  24              		.thumb
  25              		.thumb_func
  26              		.type	angle_control_isr_Interrupt, %function
  27              	angle_control_isr_Interrupt:
  28              	.LFB67:
  29              		.file 1 "Generated_Source\\PSoC5\\angle_control_isr.c"
   1:Generated_Source\PSoC5/angle_control_isr.c **** /*******************************************************************************
   2:Generated_Source\PSoC5/angle_control_isr.c **** * File Name: angle_control_isr.c  
   3:Generated_Source\PSoC5/angle_control_isr.c **** * Version 1.70
   4:Generated_Source\PSoC5/angle_control_isr.c **** *
   5:Generated_Source\PSoC5/angle_control_isr.c **** *  Description:
   6:Generated_Source\PSoC5/angle_control_isr.c **** *   API for controlling the state of an interrupt.
   7:Generated_Source\PSoC5/angle_control_isr.c **** *
   8:Generated_Source\PSoC5/angle_control_isr.c **** *
   9:Generated_Source\PSoC5/angle_control_isr.c **** *  Note:
  10:Generated_Source\PSoC5/angle_control_isr.c **** *
  11:Generated_Source\PSoC5/angle_control_isr.c **** ********************************************************************************
  12:Generated_Source\PSoC5/angle_control_isr.c **** * Copyright 2008-2015, Cypress Semiconductor Corporation.  All rights reserved.
  13:Generated_Source\PSoC5/angle_control_isr.c **** * You may use this file only in accordance with the license, terms, conditions, 
  14:Generated_Source\PSoC5/angle_control_isr.c **** * disclaimers, and limitations in the end user license agreement accompanying 
  15:Generated_Source\PSoC5/angle_control_isr.c **** * the software package with which this file was provided.
  16:Generated_Source\PSoC5/angle_control_isr.c **** *******************************************************************************/
  17:Generated_Source\PSoC5/angle_control_isr.c **** 
  18:Generated_Source\PSoC5/angle_control_isr.c **** 
  19:Generated_Source\PSoC5/angle_control_isr.c **** #include <cydevice_trm.h>
  20:Generated_Source\PSoC5/angle_control_isr.c **** #include <CyLib.h>
  21:Generated_Source\PSoC5/angle_control_isr.c **** #include <angle_control_isr.h>
  22:Generated_Source\PSoC5/angle_control_isr.c **** #include "cyapicallbacks.h"
  23:Generated_Source\PSoC5/angle_control_isr.c **** 
  24:Generated_Source\PSoC5/angle_control_isr.c **** #if !defined(angle_control_isr__REMOVED) /* Check for removal by optimization */
  25:Generated_Source\PSoC5/angle_control_isr.c **** 
  26:Generated_Source\PSoC5/angle_control_isr.c **** /*******************************************************************************
  27:Generated_Source\PSoC5/angle_control_isr.c **** *  Place your includes, defines and code here 
  28:Generated_Source\PSoC5/angle_control_isr.c **** ********************************************************************************/
ARM GAS  C:\Users\GONZAL~1\AppData\Local\Temp\ccgACUFw.s 			page 2


  29:Generated_Source\PSoC5/angle_control_isr.c **** /* `#START angle_control_isr_intc` */
  30:Generated_Source\PSoC5/angle_control_isr.c **** #include "global.h"
  31:Generated_Source\PSoC5/angle_control_isr.c **** #include <functions.h>    
  32:Generated_Source\PSoC5/angle_control_isr.c **** #include <DirCounter.h>
  33:Generated_Source\PSoC5/angle_control_isr.c ****     
  34:Generated_Source\PSoC5/angle_control_isr.c **** volatile int32_t HA_counter;
  35:Generated_Source\PSoC5/angle_control_isr.c **** volatile int32_t speed_ref;
  36:Generated_Source\PSoC5/angle_control_isr.c **** volatile int32_t pos_ref;
  37:Generated_Source\PSoC5/angle_control_isr.c **** volatile int32_t init_pos;
  38:Generated_Source\PSoC5/angle_control_isr.c **** volatile int32_t actual_pos;
  39:Generated_Source\PSoC5/angle_control_isr.c **** volatile int32_t t;
  40:Generated_Source\PSoC5/angle_control_isr.c **** 
  41:Generated_Source\PSoC5/angle_control_isr.c **** volatile uint8 dir_state;
  42:Generated_Source\PSoC5/angle_control_isr.c **** 
  43:Generated_Source\PSoC5/angle_control_isr.c **** volatile int32_t debug;
  44:Generated_Source\PSoC5/angle_control_isr.c ****        
  45:Generated_Source\PSoC5/angle_control_isr.c **** PID_t pos_pid_;
  46:Generated_Source\PSoC5/angle_control_isr.c **** int32_t pos_pid_output;
  47:Generated_Source\PSoC5/angle_control_isr.c ****     
  48:Generated_Source\PSoC5/angle_control_isr.c **** /* `#END` */
  49:Generated_Source\PSoC5/angle_control_isr.c **** 
  50:Generated_Source\PSoC5/angle_control_isr.c **** #ifndef CYINT_IRQ_BASE
  51:Generated_Source\PSoC5/angle_control_isr.c **** #define CYINT_IRQ_BASE      16
  52:Generated_Source\PSoC5/angle_control_isr.c **** #endif /* CYINT_IRQ_BASE */
  53:Generated_Source\PSoC5/angle_control_isr.c **** #ifndef CYINT_VECT_TABLE
  54:Generated_Source\PSoC5/angle_control_isr.c **** #define CYINT_VECT_TABLE    ((cyisraddress **) CYREG_NVIC_VECT_OFFSET)
  55:Generated_Source\PSoC5/angle_control_isr.c **** #endif /* CYINT_VECT_TABLE */
  56:Generated_Source\PSoC5/angle_control_isr.c **** 
  57:Generated_Source\PSoC5/angle_control_isr.c **** /* Declared in startup, used to set unused interrupts to. */
  58:Generated_Source\PSoC5/angle_control_isr.c **** CY_ISR_PROTO(IntDefaultHandler);
  59:Generated_Source\PSoC5/angle_control_isr.c **** 
  60:Generated_Source\PSoC5/angle_control_isr.c **** 
  61:Generated_Source\PSoC5/angle_control_isr.c **** /*******************************************************************************
  62:Generated_Source\PSoC5/angle_control_isr.c **** * Function Name: angle_control_isr_Start
  63:Generated_Source\PSoC5/angle_control_isr.c **** ********************************************************************************
  64:Generated_Source\PSoC5/angle_control_isr.c **** *
  65:Generated_Source\PSoC5/angle_control_isr.c **** * Summary:
  66:Generated_Source\PSoC5/angle_control_isr.c **** *  Set up the interrupt and enable it. This function disables the interrupt, 
  67:Generated_Source\PSoC5/angle_control_isr.c **** *  sets the default interrupt vector, sets the priority from the value in the
  68:Generated_Source\PSoC5/angle_control_isr.c **** *  Design Wide Resources Interrupt Editor, then enables the interrupt to the 
  69:Generated_Source\PSoC5/angle_control_isr.c **** *  interrupt controller.
  70:Generated_Source\PSoC5/angle_control_isr.c **** *
  71:Generated_Source\PSoC5/angle_control_isr.c **** * Parameters:  
  72:Generated_Source\PSoC5/angle_control_isr.c **** *   None
  73:Generated_Source\PSoC5/angle_control_isr.c **** *
  74:Generated_Source\PSoC5/angle_control_isr.c **** * Return:
  75:Generated_Source\PSoC5/angle_control_isr.c **** *   None
  76:Generated_Source\PSoC5/angle_control_isr.c **** *
  77:Generated_Source\PSoC5/angle_control_isr.c **** *******************************************************************************/
  78:Generated_Source\PSoC5/angle_control_isr.c **** void angle_control_isr_Start(void)
  79:Generated_Source\PSoC5/angle_control_isr.c **** {
  80:Generated_Source\PSoC5/angle_control_isr.c ****     /* For all we know the interrupt is active. */
  81:Generated_Source\PSoC5/angle_control_isr.c ****     angle_control_isr_Disable();
  82:Generated_Source\PSoC5/angle_control_isr.c **** 
  83:Generated_Source\PSoC5/angle_control_isr.c ****     /* Set the ISR to point to the angle_control_isr Interrupt. */
  84:Generated_Source\PSoC5/angle_control_isr.c ****     angle_control_isr_SetVector(&angle_control_isr_Interrupt);
  85:Generated_Source\PSoC5/angle_control_isr.c **** 
ARM GAS  C:\Users\GONZAL~1\AppData\Local\Temp\ccgACUFw.s 			page 3


  86:Generated_Source\PSoC5/angle_control_isr.c ****     /* Set the priority. */
  87:Generated_Source\PSoC5/angle_control_isr.c ****     angle_control_isr_SetPriority((uint8)angle_control_isr_INTC_PRIOR_NUMBER);
  88:Generated_Source\PSoC5/angle_control_isr.c **** 
  89:Generated_Source\PSoC5/angle_control_isr.c ****     /* Enable it. */
  90:Generated_Source\PSoC5/angle_control_isr.c ****     angle_control_isr_Enable();
  91:Generated_Source\PSoC5/angle_control_isr.c **** }
  92:Generated_Source\PSoC5/angle_control_isr.c **** 
  93:Generated_Source\PSoC5/angle_control_isr.c **** 
  94:Generated_Source\PSoC5/angle_control_isr.c **** /*******************************************************************************
  95:Generated_Source\PSoC5/angle_control_isr.c **** * Function Name: angle_control_isr_StartEx
  96:Generated_Source\PSoC5/angle_control_isr.c **** ********************************************************************************
  97:Generated_Source\PSoC5/angle_control_isr.c **** *
  98:Generated_Source\PSoC5/angle_control_isr.c **** * Summary:
  99:Generated_Source\PSoC5/angle_control_isr.c **** *  Sets up the interrupt and enables it. This function disables the interrupt,
 100:Generated_Source\PSoC5/angle_control_isr.c **** *  sets the interrupt vector based on the address passed in, sets the priority 
 101:Generated_Source\PSoC5/angle_control_isr.c **** *  from the value in the Design Wide Resources Interrupt Editor, then enables 
 102:Generated_Source\PSoC5/angle_control_isr.c **** *  the interrupt to the interrupt controller.
 103:Generated_Source\PSoC5/angle_control_isr.c **** *  
 104:Generated_Source\PSoC5/angle_control_isr.c **** *  When defining ISR functions, the CY_ISR and CY_ISR_PROTO macros should be 
 105:Generated_Source\PSoC5/angle_control_isr.c **** *  used to provide consistent definition across compilers:
 106:Generated_Source\PSoC5/angle_control_isr.c **** *  
 107:Generated_Source\PSoC5/angle_control_isr.c **** *  Function definition example:
 108:Generated_Source\PSoC5/angle_control_isr.c **** *   CY_ISR(MyISR)
 109:Generated_Source\PSoC5/angle_control_isr.c **** *   {
 110:Generated_Source\PSoC5/angle_control_isr.c **** *   }
 111:Generated_Source\PSoC5/angle_control_isr.c **** *   Function prototype example:
 112:Generated_Source\PSoC5/angle_control_isr.c **** *   CY_ISR_PROTO(MyISR);
 113:Generated_Source\PSoC5/angle_control_isr.c **** *
 114:Generated_Source\PSoC5/angle_control_isr.c **** * Parameters:  
 115:Generated_Source\PSoC5/angle_control_isr.c **** *   address: Address of the ISR to set in the interrupt vector table.
 116:Generated_Source\PSoC5/angle_control_isr.c **** *
 117:Generated_Source\PSoC5/angle_control_isr.c **** * Return:
 118:Generated_Source\PSoC5/angle_control_isr.c **** *   None
 119:Generated_Source\PSoC5/angle_control_isr.c **** *
 120:Generated_Source\PSoC5/angle_control_isr.c **** *******************************************************************************/
 121:Generated_Source\PSoC5/angle_control_isr.c **** void angle_control_isr_StartEx(cyisraddress address)
 122:Generated_Source\PSoC5/angle_control_isr.c **** {
 123:Generated_Source\PSoC5/angle_control_isr.c ****     /* For all we know the interrupt is active. */
 124:Generated_Source\PSoC5/angle_control_isr.c ****     angle_control_isr_Disable();
 125:Generated_Source\PSoC5/angle_control_isr.c **** 
 126:Generated_Source\PSoC5/angle_control_isr.c ****     /* Set the ISR to point to the angle_control_isr Interrupt. */
 127:Generated_Source\PSoC5/angle_control_isr.c ****     angle_control_isr_SetVector(address);
 128:Generated_Source\PSoC5/angle_control_isr.c **** 
 129:Generated_Source\PSoC5/angle_control_isr.c ****     /* Set the priority. */
 130:Generated_Source\PSoC5/angle_control_isr.c ****     angle_control_isr_SetPriority((uint8)angle_control_isr_INTC_PRIOR_NUMBER);
 131:Generated_Source\PSoC5/angle_control_isr.c **** 
 132:Generated_Source\PSoC5/angle_control_isr.c ****     /* Enable it. */
 133:Generated_Source\PSoC5/angle_control_isr.c ****     angle_control_isr_Enable();
 134:Generated_Source\PSoC5/angle_control_isr.c **** }
 135:Generated_Source\PSoC5/angle_control_isr.c **** 
 136:Generated_Source\PSoC5/angle_control_isr.c **** 
 137:Generated_Source\PSoC5/angle_control_isr.c **** /*******************************************************************************
 138:Generated_Source\PSoC5/angle_control_isr.c **** * Function Name: angle_control_isr_Stop
 139:Generated_Source\PSoC5/angle_control_isr.c **** ********************************************************************************
 140:Generated_Source\PSoC5/angle_control_isr.c **** *
 141:Generated_Source\PSoC5/angle_control_isr.c **** * Summary:
 142:Generated_Source\PSoC5/angle_control_isr.c **** *   Disables and removes the interrupt.
ARM GAS  C:\Users\GONZAL~1\AppData\Local\Temp\ccgACUFw.s 			page 4


 143:Generated_Source\PSoC5/angle_control_isr.c **** *
 144:Generated_Source\PSoC5/angle_control_isr.c **** * Parameters:  
 145:Generated_Source\PSoC5/angle_control_isr.c **** *   None
 146:Generated_Source\PSoC5/angle_control_isr.c **** *
 147:Generated_Source\PSoC5/angle_control_isr.c **** * Return:
 148:Generated_Source\PSoC5/angle_control_isr.c **** *   None
 149:Generated_Source\PSoC5/angle_control_isr.c **** *
 150:Generated_Source\PSoC5/angle_control_isr.c **** *******************************************************************************/
 151:Generated_Source\PSoC5/angle_control_isr.c **** void angle_control_isr_Stop(void)
 152:Generated_Source\PSoC5/angle_control_isr.c **** {
 153:Generated_Source\PSoC5/angle_control_isr.c ****     /* Disable this interrupt. */
 154:Generated_Source\PSoC5/angle_control_isr.c ****     angle_control_isr_Disable();
 155:Generated_Source\PSoC5/angle_control_isr.c **** 
 156:Generated_Source\PSoC5/angle_control_isr.c ****     /* Set the ISR to point to the passive one. */
 157:Generated_Source\PSoC5/angle_control_isr.c ****     angle_control_isr_SetVector(&IntDefaultHandler);
 158:Generated_Source\PSoC5/angle_control_isr.c **** }
 159:Generated_Source\PSoC5/angle_control_isr.c **** 
 160:Generated_Source\PSoC5/angle_control_isr.c **** 
 161:Generated_Source\PSoC5/angle_control_isr.c **** /*******************************************************************************
 162:Generated_Source\PSoC5/angle_control_isr.c **** * Function Name: angle_control_isr_Interrupt
 163:Generated_Source\PSoC5/angle_control_isr.c **** ********************************************************************************
 164:Generated_Source\PSoC5/angle_control_isr.c **** *
 165:Generated_Source\PSoC5/angle_control_isr.c **** * Summary:
 166:Generated_Source\PSoC5/angle_control_isr.c **** *   The default Interrupt Service Routine for angle_control_isr.
 167:Generated_Source\PSoC5/angle_control_isr.c **** *
 168:Generated_Source\PSoC5/angle_control_isr.c **** *   Add custom code between the coments to keep the next version of this file
 169:Generated_Source\PSoC5/angle_control_isr.c **** *   from over writting your code.
 170:Generated_Source\PSoC5/angle_control_isr.c **** *
 171:Generated_Source\PSoC5/angle_control_isr.c **** * Parameters:  
 172:Generated_Source\PSoC5/angle_control_isr.c **** *
 173:Generated_Source\PSoC5/angle_control_isr.c **** * Return:
 174:Generated_Source\PSoC5/angle_control_isr.c **** *   None
 175:Generated_Source\PSoC5/angle_control_isr.c **** *
 176:Generated_Source\PSoC5/angle_control_isr.c **** *******************************************************************************/
 177:Generated_Source\PSoC5/angle_control_isr.c **** CY_ISR(angle_control_isr_Interrupt)
 178:Generated_Source\PSoC5/angle_control_isr.c **** {
  30              		.loc 1 178 0
  31              		.cfi_startproc
  32              		@ args = 0, pretend = 0, frame = 0
  33              		@ frame_needed = 0, uses_anonymous_args = 0
  34 0000 30B5     		push	{r4, r5, lr}
  35              		.cfi_def_cfa_offset 12
  36              		.cfi_offset 4, -12
  37              		.cfi_offset 5, -8
  38              		.cfi_offset 14, -4
  39 0002 83B0     		sub	sp, sp, #12
  40              		.cfi_def_cfa_offset 24
 179:Generated_Source\PSoC5/angle_control_isr.c ****     #ifdef angle_control_isr_INTERRUPT_INTERRUPT_CALLBACK
 180:Generated_Source\PSoC5/angle_control_isr.c ****         angle_control_isr_Interrupt_InterruptCallback();
 181:Generated_Source\PSoC5/angle_control_isr.c ****     #endif /* angle_control_isr_INTERRUPT_INTERRUPT_CALLBACK */ 
 182:Generated_Source\PSoC5/angle_control_isr.c **** 
 183:Generated_Source\PSoC5/angle_control_isr.c ****     /*  Place your Interrupt code here. */
 184:Generated_Source\PSoC5/angle_control_isr.c ****     /* `#START angle_control_isr_Interrupt` */
 185:Generated_Source\PSoC5/angle_control_isr.c ****     
 186:Generated_Source\PSoC5/angle_control_isr.c ****     /* in hall sensor count for better resolution */
 187:Generated_Source\PSoC5/angle_control_isr.c ****     actual_pos = DirCounter_GetCounter() - init_pos;
  41              		.loc 1 187 0
ARM GAS  C:\Users\GONZAL~1\AppData\Local\Temp\ccgACUFw.s 			page 5


  42 0004 FFF7FEFF 		bl	DirCounter_GetCounter
  43              	.LVL0:
  44 0008 174A     		ldr	r2, .L5
  45 000a 1368     		ldr	r3, [r2]
  46 000c C01A     		subs	r0, r0, r3
  47 000e 174D     		ldr	r5, .L5+4
  48 0010 2860     		str	r0, [r5]
 188:Generated_Source\PSoC5/angle_control_isr.c ****     
 189:Generated_Source\PSoC5/angle_control_isr.c ****     PID_setRef(&pos_pid_,(pos_ref-init_pos)*4);
  49              		.loc 1 189 0
  50 0012 174B     		ldr	r3, .L5+8
  51 0014 1B68     		ldr	r3, [r3]
  52 0016 1168     		ldr	r1, [r2]
  53 0018 591A     		subs	r1, r3, r1
  54 001a 164C     		ldr	r4, .L5+12
  55 001c 8900     		lsls	r1, r1, #2
  56 001e 2046     		mov	r0, r4
  57 0020 FFF7FEFF 		bl	PID_setRef
  58              	.LVL1:
 190:Generated_Source\PSoC5/angle_control_isr.c ****     
 191:Generated_Source\PSoC5/angle_control_isr.c ****     pos_pid_output = PID_calculatePID(&pos_pid_,actual_pos);
  59              		.loc 1 191 0
  60 0024 2968     		ldr	r1, [r5]
  61 0026 2046     		mov	r0, r4
  62 0028 FFF7FEFF 		bl	PID_calculatePID
  63              	.LVL2:
  64 002c 124B     		ldr	r3, .L5+16
  65 002e 1860     		str	r0, [r3]
 192:Generated_Source\PSoC5/angle_control_isr.c **** 
 193:Generated_Source\PSoC5/angle_control_isr.c ****     #ifdef ANGLE_CONTROL
 194:Generated_Source\PSoC5/angle_control_isr.c ****             
 195:Generated_Source\PSoC5/angle_control_isr.c ****         if(pos_pid_output < 0)
  66              		.loc 1 195 0
  67 0030 0028     		cmp	r0, #0
  68 0032 03DA     		bge	.L2
 196:Generated_Source\PSoC5/angle_control_isr.c ****             dir_state=1;
  69              		.loc 1 196 0
  70 0034 0122     		movs	r2, #1
  71 0036 114B     		ldr	r3, .L5+20
  72 0038 1A70     		strb	r2, [r3]
  73 003a 02E0     		b	.L3
  74              	.L2:
 197:Generated_Source\PSoC5/angle_control_isr.c ****         else
 198:Generated_Source\PSoC5/angle_control_isr.c ****             dir_state=0;
  75              		.loc 1 198 0
  76 003c 0022     		movs	r2, #0
  77 003e 0F4B     		ldr	r3, .L5+20
  78 0040 1A70     		strb	r2, [r3]
  79              	.L3:
 199:Generated_Source\PSoC5/angle_control_isr.c ****         
 200:Generated_Source\PSoC5/angle_control_isr.c ****         speed_ref = (int)fabs(Sigmoid(pos_pid_output,VEL_MAX,K_VEL));
  80              		.loc 1 200 0
  81 0042 FFF7FEFF 		bl	__aeabi_i2d
  82              	.LVL3:
  83 0046 0022     		movs	r2, #0
  84 0048 0D4B     		ldr	r3, .L5+24
  85 004a CDE90023 		strd	r2, [sp]
ARM GAS  C:\Users\GONZAL~1\AppData\Local\Temp\ccgACUFw.s 			page 6


  86 004e 0022     		movs	r2, #0
  87 0050 0C4B     		ldr	r3, .L5+28
  88 0052 FFF7FEFF 		bl	Sigmoid
  89              	.LVL4:
  90 0056 21F00043 		bic	r3, r1, #-2147483648
  91 005a 1946     		mov	r1, r3
  92 005c FFF7FEFF 		bl	__aeabi_d2iz
  93              	.LVL5:
  94 0060 094B     		ldr	r3, .L5+32
  95 0062 1860     		str	r0, [r3]
 201:Generated_Source\PSoC5/angle_control_isr.c ****         
 202:Generated_Source\PSoC5/angle_control_isr.c ****     #endif
 203:Generated_Source\PSoC5/angle_control_isr.c **** 
 204:Generated_Source\PSoC5/angle_control_isr.c ****     /* `#END` */
 205:Generated_Source\PSoC5/angle_control_isr.c **** }
  96              		.loc 1 205 0
  97 0064 03B0     		add	sp, sp, #12
  98              		.cfi_def_cfa_offset 12
  99              		@ sp needed
 100 0066 30BD     		pop	{r4, r5, pc}
 101              	.L6:
 102              		.align	2
 103              	.L5:
 104 0068 00000000 		.word	init_pos
 105 006c 00000000 		.word	actual_pos
 106 0070 00000000 		.word	pos_ref
 107 0074 00000000 		.word	pos_pid_
 108 0078 00000000 		.word	pos_pid_output
 109 007c 00000000 		.word	dir_state
 110 0080 0000E03F 		.word	1071644672
 111 0084 0040AF40 		.word	1085227008
 112 0088 00000000 		.word	speed_ref
 113              		.cfi_endproc
 114              	.LFE67:
 115              		.size	angle_control_isr_Interrupt, .-angle_control_isr_Interrupt
 116              		.section	.text.angle_control_isr_SetVector,"ax",%progbits
 117              		.align	2
 118              		.global	angle_control_isr_SetVector
 119              		.thumb
 120              		.thumb_func
 121              		.type	angle_control_isr_SetVector, %function
 122              	angle_control_isr_SetVector:
 123              	.LFB68:
 206:Generated_Source\PSoC5/angle_control_isr.c **** 
 207:Generated_Source\PSoC5/angle_control_isr.c **** 
 208:Generated_Source\PSoC5/angle_control_isr.c **** /*******************************************************************************
 209:Generated_Source\PSoC5/angle_control_isr.c **** * Function Name: angle_control_isr_SetVector
 210:Generated_Source\PSoC5/angle_control_isr.c **** ********************************************************************************
 211:Generated_Source\PSoC5/angle_control_isr.c **** *
 212:Generated_Source\PSoC5/angle_control_isr.c **** * Summary:
 213:Generated_Source\PSoC5/angle_control_isr.c **** *   Change the ISR vector for the Interrupt. Note calling angle_control_isr_Start
 214:Generated_Source\PSoC5/angle_control_isr.c **** *   will override any effect this method would have had. To set the vector 
 215:Generated_Source\PSoC5/angle_control_isr.c **** *   before the component has been started use angle_control_isr_StartEx instead.
 216:Generated_Source\PSoC5/angle_control_isr.c **** * 
 217:Generated_Source\PSoC5/angle_control_isr.c **** *   When defining ISR functions, the CY_ISR and CY_ISR_PROTO macros should be 
 218:Generated_Source\PSoC5/angle_control_isr.c **** *   used to provide consistent definition across compilers:
 219:Generated_Source\PSoC5/angle_control_isr.c **** *
ARM GAS  C:\Users\GONZAL~1\AppData\Local\Temp\ccgACUFw.s 			page 7


 220:Generated_Source\PSoC5/angle_control_isr.c **** *   Function definition example:
 221:Generated_Source\PSoC5/angle_control_isr.c **** *   CY_ISR(MyISR)
 222:Generated_Source\PSoC5/angle_control_isr.c **** *   {
 223:Generated_Source\PSoC5/angle_control_isr.c **** *   }
 224:Generated_Source\PSoC5/angle_control_isr.c **** *
 225:Generated_Source\PSoC5/angle_control_isr.c **** *   Function prototype example:
 226:Generated_Source\PSoC5/angle_control_isr.c **** *     CY_ISR_PROTO(MyISR);
 227:Generated_Source\PSoC5/angle_control_isr.c **** *
 228:Generated_Source\PSoC5/angle_control_isr.c **** * Parameters:
 229:Generated_Source\PSoC5/angle_control_isr.c **** *   address: Address of the ISR to set in the interrupt vector table.
 230:Generated_Source\PSoC5/angle_control_isr.c **** *
 231:Generated_Source\PSoC5/angle_control_isr.c **** * Return:
 232:Generated_Source\PSoC5/angle_control_isr.c **** *   None
 233:Generated_Source\PSoC5/angle_control_isr.c **** *
 234:Generated_Source\PSoC5/angle_control_isr.c **** *******************************************************************************/
 235:Generated_Source\PSoC5/angle_control_isr.c **** void angle_control_isr_SetVector(cyisraddress address)
 236:Generated_Source\PSoC5/angle_control_isr.c **** {
 124              		.loc 1 236 0
 125              		.cfi_startproc
 126              		@ args = 0, pretend = 0, frame = 0
 127              		@ frame_needed = 0, uses_anonymous_args = 0
 128              		@ link register save eliminated.
 129              	.LVL6:
 237:Generated_Source\PSoC5/angle_control_isr.c ****     cyisraddress * ramVectorTable;
 238:Generated_Source\PSoC5/angle_control_isr.c **** 
 239:Generated_Source\PSoC5/angle_control_isr.c ****     ramVectorTable = (cyisraddress *) *CYINT_VECT_TABLE;
 130              		.loc 1 239 0
 131 0000 014B     		ldr	r3, .L8
 132 0002 1B68     		ldr	r3, [r3]
 133              	.LVL7:
 240:Generated_Source\PSoC5/angle_control_isr.c **** 
 241:Generated_Source\PSoC5/angle_control_isr.c ****     ramVectorTable[CYINT_IRQ_BASE + (uint32)angle_control_isr__INTC_NUMBER] = address;
 134              		.loc 1 241 0
 135 0004 1865     		str	r0, [r3, #80]
 136 0006 7047     		bx	lr
 137              	.L9:
 138              		.align	2
 139              	.L8:
 140 0008 08ED00E0 		.word	-536810232
 141              		.cfi_endproc
 142              	.LFE68:
 143              		.size	angle_control_isr_SetVector, .-angle_control_isr_SetVector
 144              		.section	.text.angle_control_isr_GetVector,"ax",%progbits
 145              		.align	2
 146              		.global	angle_control_isr_GetVector
 147              		.thumb
 148              		.thumb_func
 149              		.type	angle_control_isr_GetVector, %function
 150              	angle_control_isr_GetVector:
 151              	.LFB69:
 242:Generated_Source\PSoC5/angle_control_isr.c **** }
 243:Generated_Source\PSoC5/angle_control_isr.c **** 
 244:Generated_Source\PSoC5/angle_control_isr.c **** 
 245:Generated_Source\PSoC5/angle_control_isr.c **** /*******************************************************************************
 246:Generated_Source\PSoC5/angle_control_isr.c **** * Function Name: angle_control_isr_GetVector
 247:Generated_Source\PSoC5/angle_control_isr.c **** ********************************************************************************
 248:Generated_Source\PSoC5/angle_control_isr.c **** *
ARM GAS  C:\Users\GONZAL~1\AppData\Local\Temp\ccgACUFw.s 			page 8


 249:Generated_Source\PSoC5/angle_control_isr.c **** * Summary:
 250:Generated_Source\PSoC5/angle_control_isr.c **** *   Gets the "address" of the current ISR vector for the Interrupt.
 251:Generated_Source\PSoC5/angle_control_isr.c **** *
 252:Generated_Source\PSoC5/angle_control_isr.c **** * Parameters:
 253:Generated_Source\PSoC5/angle_control_isr.c **** *   None
 254:Generated_Source\PSoC5/angle_control_isr.c **** *
 255:Generated_Source\PSoC5/angle_control_isr.c **** * Return:
 256:Generated_Source\PSoC5/angle_control_isr.c **** *   Address of the ISR in the interrupt vector table.
 257:Generated_Source\PSoC5/angle_control_isr.c **** *
 258:Generated_Source\PSoC5/angle_control_isr.c **** *******************************************************************************/
 259:Generated_Source\PSoC5/angle_control_isr.c **** cyisraddress angle_control_isr_GetVector(void)
 260:Generated_Source\PSoC5/angle_control_isr.c **** {
 152              		.loc 1 260 0
 153              		.cfi_startproc
 154              		@ args = 0, pretend = 0, frame = 0
 155              		@ frame_needed = 0, uses_anonymous_args = 0
 156              		@ link register save eliminated.
 261:Generated_Source\PSoC5/angle_control_isr.c ****     cyisraddress * ramVectorTable;
 262:Generated_Source\PSoC5/angle_control_isr.c **** 
 263:Generated_Source\PSoC5/angle_control_isr.c ****     ramVectorTable = (cyisraddress *) *CYINT_VECT_TABLE;
 157              		.loc 1 263 0
 158 0000 014B     		ldr	r3, .L11
 159 0002 1B68     		ldr	r3, [r3]
 160              	.LVL8:
 264:Generated_Source\PSoC5/angle_control_isr.c **** 
 265:Generated_Source\PSoC5/angle_control_isr.c ****     return ramVectorTable[CYINT_IRQ_BASE + (uint32)angle_control_isr__INTC_NUMBER];
 266:Generated_Source\PSoC5/angle_control_isr.c **** }
 161              		.loc 1 266 0
 162 0004 186D     		ldr	r0, [r3, #80]
 163 0006 7047     		bx	lr
 164              	.L12:
 165              		.align	2
 166              	.L11:
 167 0008 08ED00E0 		.word	-536810232
 168              		.cfi_endproc
 169              	.LFE69:
 170              		.size	angle_control_isr_GetVector, .-angle_control_isr_GetVector
 171              		.section	.text.angle_control_isr_SetPriority,"ax",%progbits
 172              		.align	2
 173              		.global	angle_control_isr_SetPriority
 174              		.thumb
 175              		.thumb_func
 176              		.type	angle_control_isr_SetPriority, %function
 177              	angle_control_isr_SetPriority:
 178              	.LFB70:
 267:Generated_Source\PSoC5/angle_control_isr.c **** 
 268:Generated_Source\PSoC5/angle_control_isr.c **** 
 269:Generated_Source\PSoC5/angle_control_isr.c **** /*******************************************************************************
 270:Generated_Source\PSoC5/angle_control_isr.c **** * Function Name: angle_control_isr_SetPriority
 271:Generated_Source\PSoC5/angle_control_isr.c **** ********************************************************************************
 272:Generated_Source\PSoC5/angle_control_isr.c **** *
 273:Generated_Source\PSoC5/angle_control_isr.c **** * Summary:
 274:Generated_Source\PSoC5/angle_control_isr.c **** *   Sets the Priority of the Interrupt. 
 275:Generated_Source\PSoC5/angle_control_isr.c **** *
 276:Generated_Source\PSoC5/angle_control_isr.c **** *   Note calling angle_control_isr_Start or angle_control_isr_StartEx will 
 277:Generated_Source\PSoC5/angle_control_isr.c **** *   override any effect this API would have had. This API should only be called
 278:Generated_Source\PSoC5/angle_control_isr.c **** *   after angle_control_isr_Start or angle_control_isr_StartEx has been called. 
ARM GAS  C:\Users\GONZAL~1\AppData\Local\Temp\ccgACUFw.s 			page 9


 279:Generated_Source\PSoC5/angle_control_isr.c **** *   To set the initial priority for the component, use the Design-Wide Resources
 280:Generated_Source\PSoC5/angle_control_isr.c **** *   Interrupt Editor.
 281:Generated_Source\PSoC5/angle_control_isr.c **** *
 282:Generated_Source\PSoC5/angle_control_isr.c **** *   Note This API has no effect on Non-maskable interrupt NMI).
 283:Generated_Source\PSoC5/angle_control_isr.c **** *
 284:Generated_Source\PSoC5/angle_control_isr.c **** * Parameters:
 285:Generated_Source\PSoC5/angle_control_isr.c **** *   priority: Priority of the interrupt, 0 being the highest priority
 286:Generated_Source\PSoC5/angle_control_isr.c **** *             PSoC 3 and PSoC 5LP: Priority is from 0 to 7.
 287:Generated_Source\PSoC5/angle_control_isr.c **** *             PSoC 4: Priority is from 0 to 3.
 288:Generated_Source\PSoC5/angle_control_isr.c **** *
 289:Generated_Source\PSoC5/angle_control_isr.c **** * Return:
 290:Generated_Source\PSoC5/angle_control_isr.c **** *   None
 291:Generated_Source\PSoC5/angle_control_isr.c **** *
 292:Generated_Source\PSoC5/angle_control_isr.c **** *******************************************************************************/
 293:Generated_Source\PSoC5/angle_control_isr.c **** void angle_control_isr_SetPriority(uint8 priority)
 294:Generated_Source\PSoC5/angle_control_isr.c **** {
 179              		.loc 1 294 0
 180              		.cfi_startproc
 181              		@ args = 0, pretend = 0, frame = 0
 182              		@ frame_needed = 0, uses_anonymous_args = 0
 183              		@ link register save eliminated.
 184              	.LVL9:
 295:Generated_Source\PSoC5/angle_control_isr.c ****     *angle_control_isr_INTC_PRIOR = priority << 5;
 185              		.loc 1 295 0
 186 0000 4001     		lsls	r0, r0, #5
 187              	.LVL10:
 188 0002 C0B2     		uxtb	r0, r0
 189 0004 014B     		ldr	r3, .L14
 190 0006 1870     		strb	r0, [r3]
 191 0008 7047     		bx	lr
 192              	.L15:
 193 000a 00BF     		.align	2
 194              	.L14:
 195 000c 04E400E0 		.word	-536812540
 196              		.cfi_endproc
 197              	.LFE70:
 198              		.size	angle_control_isr_SetPriority, .-angle_control_isr_SetPriority
 199              		.section	.text.angle_control_isr_GetPriority,"ax",%progbits
 200              		.align	2
 201              		.global	angle_control_isr_GetPriority
 202              		.thumb
 203              		.thumb_func
 204              		.type	angle_control_isr_GetPriority, %function
 205              	angle_control_isr_GetPriority:
 206              	.LFB71:
 296:Generated_Source\PSoC5/angle_control_isr.c **** }
 297:Generated_Source\PSoC5/angle_control_isr.c **** 
 298:Generated_Source\PSoC5/angle_control_isr.c **** 
 299:Generated_Source\PSoC5/angle_control_isr.c **** /*******************************************************************************
 300:Generated_Source\PSoC5/angle_control_isr.c **** * Function Name: angle_control_isr_GetPriority
 301:Generated_Source\PSoC5/angle_control_isr.c **** ********************************************************************************
 302:Generated_Source\PSoC5/angle_control_isr.c **** *
 303:Generated_Source\PSoC5/angle_control_isr.c **** * Summary:
 304:Generated_Source\PSoC5/angle_control_isr.c **** *   Gets the Priority of the Interrupt.
 305:Generated_Source\PSoC5/angle_control_isr.c **** *
 306:Generated_Source\PSoC5/angle_control_isr.c **** * Parameters:
 307:Generated_Source\PSoC5/angle_control_isr.c **** *   None
ARM GAS  C:\Users\GONZAL~1\AppData\Local\Temp\ccgACUFw.s 			page 10


 308:Generated_Source\PSoC5/angle_control_isr.c **** *
 309:Generated_Source\PSoC5/angle_control_isr.c **** * Return:
 310:Generated_Source\PSoC5/angle_control_isr.c **** *   Priority of the interrupt, 0 being the highest priority
 311:Generated_Source\PSoC5/angle_control_isr.c **** *    PSoC 3 and PSoC 5LP: Priority is from 0 to 7.
 312:Generated_Source\PSoC5/angle_control_isr.c **** *    PSoC 4: Priority is from 0 to 3.
 313:Generated_Source\PSoC5/angle_control_isr.c **** *
 314:Generated_Source\PSoC5/angle_control_isr.c **** *******************************************************************************/
 315:Generated_Source\PSoC5/angle_control_isr.c **** uint8 angle_control_isr_GetPriority(void)
 316:Generated_Source\PSoC5/angle_control_isr.c **** {
 207              		.loc 1 316 0
 208              		.cfi_startproc
 209              		@ args = 0, pretend = 0, frame = 0
 210              		@ frame_needed = 0, uses_anonymous_args = 0
 211              		@ link register save eliminated.
 317:Generated_Source\PSoC5/angle_control_isr.c ****     uint8 priority;
 318:Generated_Source\PSoC5/angle_control_isr.c **** 
 319:Generated_Source\PSoC5/angle_control_isr.c **** 
 320:Generated_Source\PSoC5/angle_control_isr.c ****     priority = *angle_control_isr_INTC_PRIOR >> 5;
 212              		.loc 1 320 0
 213 0000 014B     		ldr	r3, .L17
 214 0002 1878     		ldrb	r0, [r3]	@ zero_extendqisi2
 215              	.LVL11:
 321:Generated_Source\PSoC5/angle_control_isr.c **** 
 322:Generated_Source\PSoC5/angle_control_isr.c ****     return priority;
 323:Generated_Source\PSoC5/angle_control_isr.c **** }
 216              		.loc 1 323 0
 217 0004 4009     		lsrs	r0, r0, #5
 218              	.LVL12:
 219 0006 7047     		bx	lr
 220              	.L18:
 221              		.align	2
 222              	.L17:
 223 0008 04E400E0 		.word	-536812540
 224              		.cfi_endproc
 225              	.LFE71:
 226              		.size	angle_control_isr_GetPriority, .-angle_control_isr_GetPriority
 227              		.section	.text.angle_control_isr_Enable,"ax",%progbits
 228              		.align	2
 229              		.global	angle_control_isr_Enable
 230              		.thumb
 231              		.thumb_func
 232              		.type	angle_control_isr_Enable, %function
 233              	angle_control_isr_Enable:
 234              	.LFB72:
 324:Generated_Source\PSoC5/angle_control_isr.c **** 
 325:Generated_Source\PSoC5/angle_control_isr.c **** 
 326:Generated_Source\PSoC5/angle_control_isr.c **** /*******************************************************************************
 327:Generated_Source\PSoC5/angle_control_isr.c **** * Function Name: angle_control_isr_Enable
 328:Generated_Source\PSoC5/angle_control_isr.c **** ********************************************************************************
 329:Generated_Source\PSoC5/angle_control_isr.c **** *
 330:Generated_Source\PSoC5/angle_control_isr.c **** * Summary:
 331:Generated_Source\PSoC5/angle_control_isr.c **** *   Enables the interrupt to the interrupt controller. Do not call this function
 332:Generated_Source\PSoC5/angle_control_isr.c **** *   unless ISR_Start() has been called or the functionality of the ISR_Start() 
 333:Generated_Source\PSoC5/angle_control_isr.c **** *   function, which sets the vector and the priority, has been called.
 334:Generated_Source\PSoC5/angle_control_isr.c **** *
 335:Generated_Source\PSoC5/angle_control_isr.c **** * Parameters:
 336:Generated_Source\PSoC5/angle_control_isr.c **** *   None
ARM GAS  C:\Users\GONZAL~1\AppData\Local\Temp\ccgACUFw.s 			page 11


 337:Generated_Source\PSoC5/angle_control_isr.c **** *
 338:Generated_Source\PSoC5/angle_control_isr.c **** * Return:
 339:Generated_Source\PSoC5/angle_control_isr.c **** *   None
 340:Generated_Source\PSoC5/angle_control_isr.c **** *
 341:Generated_Source\PSoC5/angle_control_isr.c **** *******************************************************************************/
 342:Generated_Source\PSoC5/angle_control_isr.c **** void angle_control_isr_Enable(void)
 343:Generated_Source\PSoC5/angle_control_isr.c **** {
 235              		.loc 1 343 0
 236              		.cfi_startproc
 237              		@ args = 0, pretend = 0, frame = 0
 238              		@ frame_needed = 0, uses_anonymous_args = 0
 239              		@ link register save eliminated.
 344:Generated_Source\PSoC5/angle_control_isr.c ****     /* Enable the general interrupt. */
 345:Generated_Source\PSoC5/angle_control_isr.c ****     *angle_control_isr_INTC_SET_EN = angle_control_isr__INTC_MASK;
 240              		.loc 1 345 0
 241 0000 1022     		movs	r2, #16
 242 0002 014B     		ldr	r3, .L20
 243 0004 1A60     		str	r2, [r3]
 244 0006 7047     		bx	lr
 245              	.L21:
 246              		.align	2
 247              	.L20:
 248 0008 00E100E0 		.word	-536813312
 249              		.cfi_endproc
 250              	.LFE72:
 251              		.size	angle_control_isr_Enable, .-angle_control_isr_Enable
 252              		.section	.text.angle_control_isr_GetState,"ax",%progbits
 253              		.align	2
 254              		.global	angle_control_isr_GetState
 255              		.thumb
 256              		.thumb_func
 257              		.type	angle_control_isr_GetState, %function
 258              	angle_control_isr_GetState:
 259              	.LFB73:
 346:Generated_Source\PSoC5/angle_control_isr.c **** }
 347:Generated_Source\PSoC5/angle_control_isr.c **** 
 348:Generated_Source\PSoC5/angle_control_isr.c **** 
 349:Generated_Source\PSoC5/angle_control_isr.c **** /*******************************************************************************
 350:Generated_Source\PSoC5/angle_control_isr.c **** * Function Name: angle_control_isr_GetState
 351:Generated_Source\PSoC5/angle_control_isr.c **** ********************************************************************************
 352:Generated_Source\PSoC5/angle_control_isr.c **** *
 353:Generated_Source\PSoC5/angle_control_isr.c **** * Summary:
 354:Generated_Source\PSoC5/angle_control_isr.c **** *   Gets the state (enabled, disabled) of the Interrupt.
 355:Generated_Source\PSoC5/angle_control_isr.c **** *
 356:Generated_Source\PSoC5/angle_control_isr.c **** * Parameters:
 357:Generated_Source\PSoC5/angle_control_isr.c **** *   None
 358:Generated_Source\PSoC5/angle_control_isr.c **** *
 359:Generated_Source\PSoC5/angle_control_isr.c **** * Return:
 360:Generated_Source\PSoC5/angle_control_isr.c **** *   1 if enabled, 0 if disabled.
 361:Generated_Source\PSoC5/angle_control_isr.c **** *
 362:Generated_Source\PSoC5/angle_control_isr.c **** *******************************************************************************/
 363:Generated_Source\PSoC5/angle_control_isr.c **** uint8 angle_control_isr_GetState(void)
 364:Generated_Source\PSoC5/angle_control_isr.c **** {
 260              		.loc 1 364 0
 261              		.cfi_startproc
 262              		@ args = 0, pretend = 0, frame = 0
 263              		@ frame_needed = 0, uses_anonymous_args = 0
ARM GAS  C:\Users\GONZAL~1\AppData\Local\Temp\ccgACUFw.s 			page 12


 264              		@ link register save eliminated.
 365:Generated_Source\PSoC5/angle_control_isr.c ****     /* Get the state of the general interrupt. */
 366:Generated_Source\PSoC5/angle_control_isr.c ****     return ((*angle_control_isr_INTC_SET_EN & (uint32)angle_control_isr__INTC_MASK) != 0u) ? 1u:0u;
 265              		.loc 1 366 0
 266 0000 044B     		ldr	r3, .L25
 267 0002 1B68     		ldr	r3, [r3]
 268 0004 13F0100F 		tst	r3, #16
 269 0008 01D0     		beq	.L24
 270 000a 0120     		movs	r0, #1
 271 000c 7047     		bx	lr
 272              	.L24:
 273 000e 0020     		movs	r0, #0
 367:Generated_Source\PSoC5/angle_control_isr.c **** }
 274              		.loc 1 367 0
 275 0010 7047     		bx	lr
 276              	.L26:
 277 0012 00BF     		.align	2
 278              	.L25:
 279 0014 00E100E0 		.word	-536813312
 280              		.cfi_endproc
 281              	.LFE73:
 282              		.size	angle_control_isr_GetState, .-angle_control_isr_GetState
 283              		.section	.text.angle_control_isr_Disable,"ax",%progbits
 284              		.align	2
 285              		.global	angle_control_isr_Disable
 286              		.thumb
 287              		.thumb_func
 288              		.type	angle_control_isr_Disable, %function
 289              	angle_control_isr_Disable:
 290              	.LFB74:
 368:Generated_Source\PSoC5/angle_control_isr.c **** 
 369:Generated_Source\PSoC5/angle_control_isr.c **** 
 370:Generated_Source\PSoC5/angle_control_isr.c **** /*******************************************************************************
 371:Generated_Source\PSoC5/angle_control_isr.c **** * Function Name: angle_control_isr_Disable
 372:Generated_Source\PSoC5/angle_control_isr.c **** ********************************************************************************
 373:Generated_Source\PSoC5/angle_control_isr.c **** *
 374:Generated_Source\PSoC5/angle_control_isr.c **** * Summary:
 375:Generated_Source\PSoC5/angle_control_isr.c **** *   Disables the Interrupt in the interrupt controller.
 376:Generated_Source\PSoC5/angle_control_isr.c **** *
 377:Generated_Source\PSoC5/angle_control_isr.c **** * Parameters:
 378:Generated_Source\PSoC5/angle_control_isr.c **** *   None
 379:Generated_Source\PSoC5/angle_control_isr.c **** *
 380:Generated_Source\PSoC5/angle_control_isr.c **** * Return:
 381:Generated_Source\PSoC5/angle_control_isr.c **** *   None
 382:Generated_Source\PSoC5/angle_control_isr.c **** *
 383:Generated_Source\PSoC5/angle_control_isr.c **** *******************************************************************************/
 384:Generated_Source\PSoC5/angle_control_isr.c **** void angle_control_isr_Disable(void)
 385:Generated_Source\PSoC5/angle_control_isr.c **** {
 291              		.loc 1 385 0
 292              		.cfi_startproc
 293              		@ args = 0, pretend = 0, frame = 0
 294              		@ frame_needed = 0, uses_anonymous_args = 0
 295              		@ link register save eliminated.
 386:Generated_Source\PSoC5/angle_control_isr.c ****     /* Disable the general interrupt. */
 387:Generated_Source\PSoC5/angle_control_isr.c ****     *angle_control_isr_INTC_CLR_EN = angle_control_isr__INTC_MASK;
 296              		.loc 1 387 0
 297 0000 1022     		movs	r2, #16
ARM GAS  C:\Users\GONZAL~1\AppData\Local\Temp\ccgACUFw.s 			page 13


 298 0002 014B     		ldr	r3, .L28
 299 0004 1A60     		str	r2, [r3]
 300 0006 7047     		bx	lr
 301              	.L29:
 302              		.align	2
 303              	.L28:
 304 0008 80E100E0 		.word	-536813184
 305              		.cfi_endproc
 306              	.LFE74:
 307              		.size	angle_control_isr_Disable, .-angle_control_isr_Disable
 308              		.section	.text.angle_control_isr_Start,"ax",%progbits
 309              		.align	2
 310              		.global	angle_control_isr_Start
 311              		.thumb
 312              		.thumb_func
 313              		.type	angle_control_isr_Start, %function
 314              	angle_control_isr_Start:
 315              	.LFB64:
  79:Generated_Source\PSoC5/angle_control_isr.c ****     /* For all we know the interrupt is active. */
 316              		.loc 1 79 0
 317              		.cfi_startproc
 318              		@ args = 0, pretend = 0, frame = 0
 319              		@ frame_needed = 0, uses_anonymous_args = 0
 320 0000 08B5     		push	{r3, lr}
 321              		.cfi_def_cfa_offset 8
 322              		.cfi_offset 3, -8
 323              		.cfi_offset 14, -4
  81:Generated_Source\PSoC5/angle_control_isr.c **** 
 324              		.loc 1 81 0
 325 0002 FFF7FEFF 		bl	angle_control_isr_Disable
 326              	.LVL13:
  84:Generated_Source\PSoC5/angle_control_isr.c **** 
 327              		.loc 1 84 0
 328 0006 0448     		ldr	r0, .L32
 329 0008 FFF7FEFF 		bl	angle_control_isr_SetVector
 330              	.LVL14:
  87:Generated_Source\PSoC5/angle_control_isr.c **** 
 331              		.loc 1 87 0
 332 000c 0720     		movs	r0, #7
 333 000e FFF7FEFF 		bl	angle_control_isr_SetPriority
 334              	.LVL15:
  90:Generated_Source\PSoC5/angle_control_isr.c **** }
 335              		.loc 1 90 0
 336 0012 FFF7FEFF 		bl	angle_control_isr_Enable
 337              	.LVL16:
 338 0016 08BD     		pop	{r3, pc}
 339              	.L33:
 340              		.align	2
 341              	.L32:
 342 0018 00000000 		.word	angle_control_isr_Interrupt
 343              		.cfi_endproc
 344              	.LFE64:
 345              		.size	angle_control_isr_Start, .-angle_control_isr_Start
 346              		.section	.text.angle_control_isr_StartEx,"ax",%progbits
 347              		.align	2
 348              		.global	angle_control_isr_StartEx
 349              		.thumb
ARM GAS  C:\Users\GONZAL~1\AppData\Local\Temp\ccgACUFw.s 			page 14


 350              		.thumb_func
 351              		.type	angle_control_isr_StartEx, %function
 352              	angle_control_isr_StartEx:
 353              	.LFB65:
 122:Generated_Source\PSoC5/angle_control_isr.c ****     /* For all we know the interrupt is active. */
 354              		.loc 1 122 0
 355              		.cfi_startproc
 356              		@ args = 0, pretend = 0, frame = 0
 357              		@ frame_needed = 0, uses_anonymous_args = 0
 358              	.LVL17:
 359 0000 10B5     		push	{r4, lr}
 360              		.cfi_def_cfa_offset 8
 361              		.cfi_offset 4, -8
 362              		.cfi_offset 14, -4
 363 0002 0446     		mov	r4, r0
 124:Generated_Source\PSoC5/angle_control_isr.c **** 
 364              		.loc 1 124 0
 365 0004 FFF7FEFF 		bl	angle_control_isr_Disable
 366              	.LVL18:
 127:Generated_Source\PSoC5/angle_control_isr.c **** 
 367              		.loc 1 127 0
 368 0008 2046     		mov	r0, r4
 369 000a FFF7FEFF 		bl	angle_control_isr_SetVector
 370              	.LVL19:
 130:Generated_Source\PSoC5/angle_control_isr.c **** 
 371              		.loc 1 130 0
 372 000e 0720     		movs	r0, #7
 373 0010 FFF7FEFF 		bl	angle_control_isr_SetPriority
 374              	.LVL20:
 133:Generated_Source\PSoC5/angle_control_isr.c **** }
 375              		.loc 1 133 0
 376 0014 FFF7FEFF 		bl	angle_control_isr_Enable
 377              	.LVL21:
 378 0018 10BD     		pop	{r4, pc}
 379              		.cfi_endproc
 380              	.LFE65:
 381              		.size	angle_control_isr_StartEx, .-angle_control_isr_StartEx
 382 001a 00BF     		.section	.text.angle_control_isr_Stop,"ax",%progbits
 383              		.align	2
 384              		.global	angle_control_isr_Stop
 385              		.thumb
 386              		.thumb_func
 387              		.type	angle_control_isr_Stop, %function
 388              	angle_control_isr_Stop:
 389              	.LFB66:
 152:Generated_Source\PSoC5/angle_control_isr.c ****     /* Disable this interrupt. */
 390              		.loc 1 152 0
 391              		.cfi_startproc
 392              		@ args = 0, pretend = 0, frame = 0
 393              		@ frame_needed = 0, uses_anonymous_args = 0
 394 0000 08B5     		push	{r3, lr}
 395              		.cfi_def_cfa_offset 8
 396              		.cfi_offset 3, -8
 397              		.cfi_offset 14, -4
 154:Generated_Source\PSoC5/angle_control_isr.c **** 
 398              		.loc 1 154 0
 399 0002 FFF7FEFF 		bl	angle_control_isr_Disable
ARM GAS  C:\Users\GONZAL~1\AppData\Local\Temp\ccgACUFw.s 			page 15


 400              	.LVL22:
 157:Generated_Source\PSoC5/angle_control_isr.c **** }
 401              		.loc 1 157 0
 402 0006 0248     		ldr	r0, .L38
 403 0008 FFF7FEFF 		bl	angle_control_isr_SetVector
 404              	.LVL23:
 405 000c 08BD     		pop	{r3, pc}
 406              	.L39:
 407 000e 00BF     		.align	2
 408              	.L38:
 409 0010 00000000 		.word	IntDefaultHandler
 410              		.cfi_endproc
 411              	.LFE66:
 412              		.size	angle_control_isr_Stop, .-angle_control_isr_Stop
 413              		.section	.text.angle_control_isr_SetPending,"ax",%progbits
 414              		.align	2
 415              		.global	angle_control_isr_SetPending
 416              		.thumb
 417              		.thumb_func
 418              		.type	angle_control_isr_SetPending, %function
 419              	angle_control_isr_SetPending:
 420              	.LFB75:
 388:Generated_Source\PSoC5/angle_control_isr.c **** }
 389:Generated_Source\PSoC5/angle_control_isr.c **** 
 390:Generated_Source\PSoC5/angle_control_isr.c **** 
 391:Generated_Source\PSoC5/angle_control_isr.c **** /*******************************************************************************
 392:Generated_Source\PSoC5/angle_control_isr.c **** * Function Name: angle_control_isr_SetPending
 393:Generated_Source\PSoC5/angle_control_isr.c **** ********************************************************************************
 394:Generated_Source\PSoC5/angle_control_isr.c **** *
 395:Generated_Source\PSoC5/angle_control_isr.c **** * Summary:
 396:Generated_Source\PSoC5/angle_control_isr.c **** *   Causes the Interrupt to enter the pending state, a software method of
 397:Generated_Source\PSoC5/angle_control_isr.c **** *   generating the interrupt.
 398:Generated_Source\PSoC5/angle_control_isr.c **** *
 399:Generated_Source\PSoC5/angle_control_isr.c **** * Parameters:
 400:Generated_Source\PSoC5/angle_control_isr.c **** *   None
 401:Generated_Source\PSoC5/angle_control_isr.c **** *
 402:Generated_Source\PSoC5/angle_control_isr.c **** * Return:
 403:Generated_Source\PSoC5/angle_control_isr.c **** *   None
 404:Generated_Source\PSoC5/angle_control_isr.c **** *
 405:Generated_Source\PSoC5/angle_control_isr.c **** * Side Effects:
 406:Generated_Source\PSoC5/angle_control_isr.c **** *   If interrupts are enabled and the interrupt is set up properly, the ISR is
 407:Generated_Source\PSoC5/angle_control_isr.c **** *   entered (depending on the priority of this interrupt and other pending 
 408:Generated_Source\PSoC5/angle_control_isr.c **** *   interrupts).
 409:Generated_Source\PSoC5/angle_control_isr.c **** *
 410:Generated_Source\PSoC5/angle_control_isr.c **** *******************************************************************************/
 411:Generated_Source\PSoC5/angle_control_isr.c **** void angle_control_isr_SetPending(void)
 412:Generated_Source\PSoC5/angle_control_isr.c **** {
 421              		.loc 1 412 0
 422              		.cfi_startproc
 423              		@ args = 0, pretend = 0, frame = 0
 424              		@ frame_needed = 0, uses_anonymous_args = 0
 425              		@ link register save eliminated.
 413:Generated_Source\PSoC5/angle_control_isr.c ****     *angle_control_isr_INTC_SET_PD = angle_control_isr__INTC_MASK;
 426              		.loc 1 413 0
 427 0000 1022     		movs	r2, #16
 428 0002 014B     		ldr	r3, .L41
 429 0004 1A60     		str	r2, [r3]
ARM GAS  C:\Users\GONZAL~1\AppData\Local\Temp\ccgACUFw.s 			page 16


 430 0006 7047     		bx	lr
 431              	.L42:
 432              		.align	2
 433              	.L41:
 434 0008 00E200E0 		.word	-536813056
 435              		.cfi_endproc
 436              	.LFE75:
 437              		.size	angle_control_isr_SetPending, .-angle_control_isr_SetPending
 438              		.section	.text.angle_control_isr_ClearPending,"ax",%progbits
 439              		.align	2
 440              		.global	angle_control_isr_ClearPending
 441              		.thumb
 442              		.thumb_func
 443              		.type	angle_control_isr_ClearPending, %function
 444              	angle_control_isr_ClearPending:
 445              	.LFB76:
 414:Generated_Source\PSoC5/angle_control_isr.c **** }
 415:Generated_Source\PSoC5/angle_control_isr.c **** 
 416:Generated_Source\PSoC5/angle_control_isr.c **** 
 417:Generated_Source\PSoC5/angle_control_isr.c **** /*******************************************************************************
 418:Generated_Source\PSoC5/angle_control_isr.c **** * Function Name: angle_control_isr_ClearPending
 419:Generated_Source\PSoC5/angle_control_isr.c **** ********************************************************************************
 420:Generated_Source\PSoC5/angle_control_isr.c **** *
 421:Generated_Source\PSoC5/angle_control_isr.c **** * Summary:
 422:Generated_Source\PSoC5/angle_control_isr.c **** *   Clears a pending interrupt in the interrupt controller.
 423:Generated_Source\PSoC5/angle_control_isr.c **** *
 424:Generated_Source\PSoC5/angle_control_isr.c **** *   Note Some interrupt sources are clear-on-read and require the block 
 425:Generated_Source\PSoC5/angle_control_isr.c **** *   interrupt/status register to be read/cleared with the appropriate block API 
 426:Generated_Source\PSoC5/angle_control_isr.c **** *   (GPIO, UART, and so on). Otherwise the ISR will continue to remain in 
 427:Generated_Source\PSoC5/angle_control_isr.c **** *   pending state even though the interrupt itself is cleared using this API.
 428:Generated_Source\PSoC5/angle_control_isr.c **** *
 429:Generated_Source\PSoC5/angle_control_isr.c **** * Parameters:
 430:Generated_Source\PSoC5/angle_control_isr.c **** *   None
 431:Generated_Source\PSoC5/angle_control_isr.c **** *
 432:Generated_Source\PSoC5/angle_control_isr.c **** * Return:
 433:Generated_Source\PSoC5/angle_control_isr.c **** *   None
 434:Generated_Source\PSoC5/angle_control_isr.c **** *
 435:Generated_Source\PSoC5/angle_control_isr.c **** *******************************************************************************/
 436:Generated_Source\PSoC5/angle_control_isr.c **** void angle_control_isr_ClearPending(void)
 437:Generated_Source\PSoC5/angle_control_isr.c **** {
 446              		.loc 1 437 0
 447              		.cfi_startproc
 448              		@ args = 0, pretend = 0, frame = 0
 449              		@ frame_needed = 0, uses_anonymous_args = 0
 450              		@ link register save eliminated.
 438:Generated_Source\PSoC5/angle_control_isr.c ****     *angle_control_isr_INTC_CLR_PD = angle_control_isr__INTC_MASK;
 451              		.loc 1 438 0
 452 0000 1022     		movs	r2, #16
 453 0002 014B     		ldr	r3, .L44
 454 0004 1A60     		str	r2, [r3]
 455 0006 7047     		bx	lr
 456              	.L45:
 457              		.align	2
 458              	.L44:
 459 0008 80E200E0 		.word	-536812928
 460              		.cfi_endproc
 461              	.LFE76:
ARM GAS  C:\Users\GONZAL~1\AppData\Local\Temp\ccgACUFw.s 			page 17


 462              		.size	angle_control_isr_ClearPending, .-angle_control_isr_ClearPending
 463              		.comm	pos_pid_output,4,4
 464              		.comm	pos_pid_,44,4
 465              		.comm	debug,4,4
 466              		.comm	dir_state,1,1
 467              		.comm	t,4,4
 468              		.comm	actual_pos,4,4
 469              		.comm	init_pos,4,4
 470              		.comm	pos_ref,4,4
 471              		.comm	speed_ref,4,4
 472              		.comm	HA_counter,4,4
 473              		.comm	_braken_state,1,1
 474              		.comm	TS_array,4,4
 475              		.comm	msg,20,4
 476              		.comm	_state_,4,4
 477              		.comm	_uart_Reset,1,1
 478              		.comm	SendEmulatedData,1,1
 479              		.comm	SendSingleByte,1,1
 480              		.comm	ContinuouslySendData,1,1
 481              		.comm	Ch,1,1
 482              		.comm	PB,16,4
 483              		.comm	RB,20,4
 484              		.text
 485              	.Letext0:
 486              		.file 2 "c:\\program files (x86)\\cypress\\psoc creator\\4.1\\psoc creator\\import\\gnu\\arm\\5.4.
 487              		.file 3 "c:\\program files (x86)\\cypress\\psoc creator\\4.1\\psoc creator\\import\\gnu\\arm\\5.4.
 488              		.file 4 "Generated_Source\\PSoC5/cytypes.h"
 489              		.file 5 "./pid.h"
 490              		.file 6 "./myUART.h"
 491              		.file 7 "./global.h"
 492              		.file 8 "Generated_Source\\PSoC5/core_cm3.h"
 493              		.file 9 "./functions.h"
 494              		.file 10 "Generated_Source\\PSoC5/DirCounter.h"