ARM GAS  C:\Users\GONZAL~1\AppData\Local\Temp\ccpbowfd.s 			page 1


   1              		.syntax unified
   2              		.cpu cortex-m3
   3              		.fpu softvfp
   4              		.eabi_attribute 20, 1
   5              		.eabi_attribute 21, 1
   6              		.eabi_attribute 23, 3
   7              		.eabi_attribute 24, 1
   8              		.eabi_attribute 25, 1
   9              		.eabi_attribute 26, 1
  10              		.eabi_attribute 30, 1
  11              		.eabi_attribute 34, 1
  12              		.eabi_attribute 18, 4
  13              		.thumb
  14              		.syntax unified
  15              		.file	"functions.c"
  16              		.text
  17              	.Ltext0:
  18              		.cfi_sections	.debug_frame
  19              		.global	__aeabi_i2d
  20              		.global	__aeabi_ddiv
  21              		.global	__aeabi_dmul
  22              		.global	__aeabi_dadd
  23              		.global	__aeabi_d2iz
  24              		.section	.text.fn_mapper,"ax",%progbits
  25              		.align	2
  26              		.global	fn_mapper
  27              		.thumb
  28              		.thumb_func
  29              		.type	fn_mapper, %function
  30              	fn_mapper:
  31              	.LFB64:
  32              		.file 1 "functions.c"
   1:functions.c   **** /* ========================================
   2:functions.c   ****  *
   3:functions.c   ****  * Copyright YOUR COMPANY, THE YEAR
   4:functions.c   ****  * All Rights Reserved
   5:functions.c   ****  * UNPUBLISHED, LICENSED SOFTWARE.
   6:functions.c   ****  *
   7:functions.c   ****  * CONFIDENTIAL AND PROPRIETARY INFORMATION
   8:functions.c   ****  * WHICH IS THE PROPERTY OF your company.
   9:functions.c   ****  *
  10:functions.c   ****  * ========================================
  11:functions.c   **** */
  12:functions.c   **** 
  13:functions.c   **** #include <functions.h>
  14:functions.c   **** #include <stdlib.h>
  15:functions.c   **** #include <math.h>
  16:functions.c   **** 
  17:functions.c   **** int32_t fn_mapper(int32_t x, int32_t in_min, int32_t in_max, int32_t out_min, int32_t out_max)
  18:functions.c   **** {    
  33              		.loc 1 18 0
  34              		.cfi_startproc
  35              		@ args = 4, pretend = 0, frame = 0
  36              		@ frame_needed = 0, uses_anonymous_args = 0
  37              	.LVL0:
  38 0000 2DE9F843 		push	{r3, r4, r5, r6, r7, r8, r9, lr}
  39              		.cfi_def_cfa_offset 32
ARM GAS  C:\Users\GONZAL~1\AppData\Local\Temp\ccpbowfd.s 			page 2


  40              		.cfi_offset 3, -32
  41              		.cfi_offset 4, -28
  42              		.cfi_offset 5, -24
  43              		.cfi_offset 6, -20
  44              		.cfi_offset 7, -16
  45              		.cfi_offset 8, -12
  46              		.cfi_offset 9, -8
  47              		.cfi_offset 14, -4
  48 0004 8046     		mov	r8, r0
  49 0006 0D46     		mov	r5, r1
  50 0008 9146     		mov	r9, r2
  51 000a 1C46     		mov	r4, r3
  19:functions.c   ****     double slope = 1.0 * (out_max - out_min)/(in_max - in_min);
  52              		.loc 1 19 0
  53 000c 0898     		ldr	r0, [sp, #32]
  54              	.LVL1:
  55 000e C01A     		subs	r0, r0, r3
  56 0010 FFF7FEFF 		bl	__aeabi_i2d
  57              	.LVL2:
  58 0014 0646     		mov	r6, r0
  59 0016 0F46     		mov	r7, r1
  60 0018 C5EB0900 		rsb	r0, r5, r9
  61 001c FFF7FEFF 		bl	__aeabi_i2d
  62              	.LVL3:
  63 0020 0246     		mov	r2, r0
  64 0022 0B46     		mov	r3, r1
  65 0024 3046     		mov	r0, r6
  66 0026 3946     		mov	r1, r7
  67 0028 FFF7FEFF 		bl	__aeabi_ddiv
  68              	.LVL4:
  69 002c 0646     		mov	r6, r0
  70 002e 0F46     		mov	r7, r1
  71              	.LVL5:
  20:functions.c   ****     return (int32_t)(out_min + slope*(x - in_min));   
  72              		.loc 1 20 0
  73 0030 C5EB0800 		rsb	r0, r5, r8
  74 0034 FFF7FEFF 		bl	__aeabi_i2d
  75              	.LVL6:
  76 0038 3246     		mov	r2, r6
  77 003a 3B46     		mov	r3, r7
  78 003c FFF7FEFF 		bl	__aeabi_dmul
  79              	.LVL7:
  80 0040 0646     		mov	r6, r0
  81              	.LVL8:
  82 0042 0F46     		mov	r7, r1
  83 0044 2046     		mov	r0, r4
  84 0046 FFF7FEFF 		bl	__aeabi_i2d
  85              	.LVL9:
  86 004a 3246     		mov	r2, r6
  87 004c 3B46     		mov	r3, r7
  88 004e FFF7FEFF 		bl	__aeabi_dadd
  89              	.LVL10:
  90 0052 FFF7FEFF 		bl	__aeabi_d2iz
  91              	.LVL11:
  21:functions.c   **** }
  92              		.loc 1 21 0
  93 0056 BDE8F883 		pop	{r3, r4, r5, r6, r7, r8, r9, pc}
ARM GAS  C:\Users\GONZAL~1\AppData\Local\Temp\ccpbowfd.s 			page 3


  94              		.cfi_endproc
  95              	.LFE64:
  96              		.size	fn_mapper, .-fn_mapper
  97              		.global	__aeabi_d2uiz
  98 005a 00BF     		.section	.text.fn_mapper_8b,"ax",%progbits
  99              		.align	2
 100              		.global	fn_mapper_8b
 101              		.thumb
 102              		.thumb_func
 103              		.type	fn_mapper_8b, %function
 104              	fn_mapper_8b:
 105              	.LFB65:
  22:functions.c   **** 
  23:functions.c   **** uint8 fn_mapper_8b(int32_t x, int32_t in_min, int32_t in_max, int32_t out_min, int32_t out_max)
  24:functions.c   **** {
 106              		.loc 1 24 0
 107              		.cfi_startproc
 108              		@ args = 4, pretend = 0, frame = 0
 109              		@ frame_needed = 0, uses_anonymous_args = 0
 110              	.LVL12:
 111 0000 2DE9F843 		push	{r3, r4, r5, r6, r7, r8, r9, lr}
 112              		.cfi_def_cfa_offset 32
 113              		.cfi_offset 3, -32
 114              		.cfi_offset 4, -28
 115              		.cfi_offset 5, -24
 116              		.cfi_offset 6, -20
 117              		.cfi_offset 7, -16
 118              		.cfi_offset 8, -12
 119              		.cfi_offset 9, -8
 120              		.cfi_offset 14, -4
 121 0004 8046     		mov	r8, r0
 122 0006 0D46     		mov	r5, r1
 123 0008 9146     		mov	r9, r2
 124 000a 1C46     		mov	r4, r3
  25:functions.c   ****     double slope = 1.0 * (out_max - out_min)/(in_max - in_min);
 125              		.loc 1 25 0
 126 000c 0898     		ldr	r0, [sp, #32]
 127              	.LVL13:
 128 000e C01A     		subs	r0, r0, r3
 129 0010 FFF7FEFF 		bl	__aeabi_i2d
 130              	.LVL14:
 131 0014 0646     		mov	r6, r0
 132 0016 0F46     		mov	r7, r1
 133 0018 C5EB0900 		rsb	r0, r5, r9
 134 001c FFF7FEFF 		bl	__aeabi_i2d
 135              	.LVL15:
 136 0020 0246     		mov	r2, r0
 137 0022 0B46     		mov	r3, r1
 138 0024 3046     		mov	r0, r6
 139 0026 3946     		mov	r1, r7
 140 0028 FFF7FEFF 		bl	__aeabi_ddiv
 141              	.LVL16:
 142 002c 0646     		mov	r6, r0
 143 002e 0F46     		mov	r7, r1
 144              	.LVL17:
  26:functions.c   ****     return (uint8)(out_min + slope*(x - in_min));
 145              		.loc 1 26 0
ARM GAS  C:\Users\GONZAL~1\AppData\Local\Temp\ccpbowfd.s 			page 4


 146 0030 C5EB0800 		rsb	r0, r5, r8
 147 0034 FFF7FEFF 		bl	__aeabi_i2d
 148              	.LVL18:
 149 0038 3246     		mov	r2, r6
 150 003a 3B46     		mov	r3, r7
 151 003c FFF7FEFF 		bl	__aeabi_dmul
 152              	.LVL19:
 153 0040 0646     		mov	r6, r0
 154              	.LVL20:
 155 0042 0F46     		mov	r7, r1
 156 0044 2046     		mov	r0, r4
 157 0046 FFF7FEFF 		bl	__aeabi_i2d
 158              	.LVL21:
 159 004a 3246     		mov	r2, r6
 160 004c 3B46     		mov	r3, r7
 161 004e FFF7FEFF 		bl	__aeabi_dadd
 162              	.LVL22:
 163 0052 FFF7FEFF 		bl	__aeabi_d2uiz
 164              	.LVL23:
  27:functions.c   **** }
 165              		.loc 1 27 0
 166 0056 C0B2     		uxtb	r0, r0
 167 0058 BDE8F883 		pop	{r3, r4, r5, r6, r7, r8, r9, pc}
 168              		.cfi_endproc
 169              	.LFE65:
 170              		.size	fn_mapper_8b, .-fn_mapper_8b
 171              		.global	__aeabi_dsub
 172              		.section	.text.Sigmoid,"ax",%progbits
 173              		.align	2
 174              		.global	Sigmoid
 175              		.thumb
 176              		.thumb_func
 177              		.type	Sigmoid, %function
 178              	Sigmoid:
 179              	.LFB66:
  28:functions.c   **** 
  29:functions.c   **** double Sigmoid(double x,double a, double b)
  30:functions.c   **** {
 180              		.loc 1 30 0
 181              		.cfi_startproc
 182              		@ args = 8, pretend = 0, frame = 0
 183              		@ frame_needed = 0, uses_anonymous_args = 0
 184              	.LVL24:
 185 0000 F8B5     		push	{r3, r4, r5, r6, r7, lr}
 186              		.cfi_def_cfa_offset 24
 187              		.cfi_offset 3, -24
 188              		.cfi_offset 4, -20
 189              		.cfi_offset 5, -16
 190              		.cfi_offset 6, -12
 191              		.cfi_offset 7, -8
 192              		.cfi_offset 14, -4
 193 0002 1646     		mov	r6, r2
 194 0004 1F46     		mov	r7, r3
  31:functions.c   ****     return a*(2/(1 + exp(-x*b))-1);
 195              		.loc 1 31 0
 196 0006 DDE90623 		ldrd	r2, [sp, #24]
 197              	.LVL25:
ARM GAS  C:\Users\GONZAL~1\AppData\Local\Temp\ccpbowfd.s 			page 5


 198 000a 01F10045 		add	r5, r1, #-2147483648
 199 000e 2946     		mov	r1, r5
 200 0010 FFF7FEFF 		bl	__aeabi_dmul
 201              	.LVL26:
 202 0014 FFF7FEFF 		bl	exp
 203              	.LVL27:
 204 0018 0022     		movs	r2, #0
 205 001a 094B     		ldr	r3, .L7
 206 001c FFF7FEFF 		bl	__aeabi_dadd
 207              	.LVL28:
 208 0020 0246     		mov	r2, r0
 209 0022 0B46     		mov	r3, r1
 210 0024 0020     		movs	r0, #0
 211 0026 4FF08041 		mov	r1, #1073741824
 212 002a FFF7FEFF 		bl	__aeabi_ddiv
 213              	.LVL29:
 214 002e 0022     		movs	r2, #0
 215 0030 034B     		ldr	r3, .L7
 216 0032 FFF7FEFF 		bl	__aeabi_dsub
 217              	.LVL30:
 218 0036 3246     		mov	r2, r6
 219 0038 3B46     		mov	r3, r7
 220 003a FFF7FEFF 		bl	__aeabi_dmul
 221              	.LVL31:
  32:functions.c   **** }
 222              		.loc 1 32 0
 223 003e F8BD     		pop	{r3, r4, r5, r6, r7, pc}
 224              	.LVL32:
 225              	.L8:
 226              		.align	2
 227              	.L7:
 228 0040 0000F03F 		.word	1072693248
 229              		.cfi_endproc
 230              	.LFE66:
 231              		.size	Sigmoid, .-Sigmoid
 232              		.section	.text.HandBrake,"ax",%progbits
 233              		.align	2
 234              		.global	HandBrake
 235              		.thumb
 236              		.thumb_func
 237              		.type	HandBrake, %function
 238              	HandBrake:
 239              	.LFB68:
  33:functions.c   **** 
  34:functions.c   **** void ProcessCommandMsg(void)
  35:functions.c   **** {    
  36:functions.c   ****     //check received message for any valid command and execute it if necessary or report old value
  37:functions.c   ****     //if command not recognized, then report error
  38:functions.c   ****     //todo: add check for valid conversion string->value
  39:functions.c   ****      
  40:functions.c   ****     //sprintf(strMsg1,"%s\r", RB.RxStr); UART_PutString(strMsg1);
  41:functions.c   ****    
  42:functions.c   ****     //todo: ther are problems if terminator is "\r\n"
  43:functions.c   ****     uint8 updatePID = FALSE;
  44:functions.c   ****     
  45:functions.c   ****     if (RB.cmd == 'P'){
  46:functions.c   ****         if(strlen(RB.valstr) > 0){
ARM GAS  C:\Users\GONZAL~1\AppData\Local\Temp\ccpbowfd.s 			page 6


  47:functions.c   ****             updatePID = TRUE;
  48:functions.c   ****             PB.pVal = atoi(RB.valstr);
  49:functions.c   ****             //sprintf(msg,"&%c: %s\r\n",RB.cmd,RB.valstr);
  50:functions.c   ****             //UART_PutString(msg);
  51:functions.c   ****         }
  52:functions.c   ****     }
  53:functions.c   ****     else if (RB.cmd == 'I'){
  54:functions.c   ****         if(strlen(RB.valstr) > 0){
  55:functions.c   ****             updatePID = TRUE;
  56:functions.c   ****             PB.iVal = atoi(RB.valstr);
  57:functions.c   ****             //sprintf(msg,"&%c: %s\r\n",RB.cmd,RB.valstr);
  58:functions.c   ****             //UART_PutString(msg);
  59:functions.c   ****         }
  60:functions.c   ****     }
  61:functions.c   ****     else if (RB.cmd == 'D'){
  62:functions.c   ****         if(strlen(RB.valstr) > 0){
  63:functions.c   ****             updatePID = TRUE;
  64:functions.c   ****             PB.dVal = atoi(RB.valstr);
  65:functions.c   ****             //sprintf(msg,"&%c: %s\r\n",RB.cmd,RB.valstr);
  66:functions.c   ****             //UART_PutString(msg);
  67:functions.c   ****         }
  68:functions.c   ****     }
  69:functions.c   ****     else if (RB.cmd == 's'){
  70:functions.c   ****         //UART_PutString("&S");
  71:functions.c   ****         ContinuouslySendData = TRUE;
  72:functions.c   ****     }
  73:functions.c   ****     else if (RB.cmd == 'q'){
  74:functions.c   ****         CySoftwareReset();
  75:functions.c   ****     }
  76:functions.c   ****     else if (RB.cmd == 'x'){
  77:functions.c   ****         //UART_PutString("&X");
  78:functions.c   ****         ContinuouslySendData = FALSE;
  79:functions.c   ****     }
  80:functions.c   ****     else if (RB.cmd == 'b'){
  81:functions.c   ****         HandBrake();
  82:functions.c   ****     }
  83:functions.c   ****     else if (RB.cmd == '!'){
  84:functions.c   ****         if(strlen(RB.valstr) > 0){
  85:functions.c   ****             pos_ref = atoi(RB.valstr);
  86:functions.c   ****         }
  87:functions.c   ****     }
  88:functions.c   ****     else if (RB.cmd == '#'){
  89:functions.c   ****         if(strlen(RB.valstr) > 0){
  90:functions.c   ****             speed_ref = atoi(RB.valstr);
  91:functions.c   ****         }
  92:functions.c   ****     }
  93:functions.c   ****     else if (RB.cmd == '$'){
  94:functions.c   ****         if(strlen(RB.valstr) > 0){
  95:functions.c   ****             tension_ref = atoi(RB.valstr);
  96:functions.c   ****         }
  97:functions.c   ****     }
  98:functions.c   ****     else if (RB.cmd == '1'){
  99:functions.c   ****         pos_ref = 20;
 100:functions.c   ****     }
 101:functions.c   ****     else if (RB.cmd == '0'){
 102:functions.c   ****         pos_ref = 0;
 103:functions.c   ****     }
ARM GAS  C:\Users\GONZAL~1\AppData\Local\Temp\ccpbowfd.s 			page 7


 104:functions.c   ****     
 105:functions.c   ****     if ( updatePID == TRUE ){
 106:functions.c   ****         PID_setCoeffs(&speed_pid_,(float)PB.pVal/100.0,(float)PB.iVal/100.0,(float)PB.dVal/100.0);
 107:functions.c   ****         updatePID = FALSE;
 108:functions.c   ****     }
 109:functions.c   **** }
 110:functions.c   **** 
 111:functions.c   **** void HandBrake()
 112:functions.c   **** {
 240              		.loc 1 112 0
 241              		.cfi_startproc
 242              		@ args = 0, pretend = 0, frame = 0
 243              		@ frame_needed = 0, uses_anonymous_args = 0
 244 0000 08B5     		push	{r3, lr}
 245              		.cfi_def_cfa_offset 8
 246              		.cfi_offset 3, -8
 247              		.cfi_offset 14, -4
 113:functions.c   ****     if (_braken_state == 0){
 248              		.loc 1 113 0
 249 0002 084B     		ldr	r3, .L13
 250 0004 1B78     		ldrb	r3, [r3]	@ zero_extendqisi2
 251 0006 33B9     		cbnz	r3, .L10
 114:functions.c   ****         BRAKEn_Write(1);
 252              		.loc 1 114 0
 253 0008 0120     		movs	r0, #1
 254 000a FFF7FEFF 		bl	BRAKEn_Write
 255              	.LVL33:
 115:functions.c   ****         _braken_state = 1;
 256              		.loc 1 115 0
 257 000e 0122     		movs	r2, #1
 258 0010 044B     		ldr	r3, .L13
 259 0012 1A70     		strb	r2, [r3]
 260 0014 08BD     		pop	{r3, pc}
 261              	.L10:
 116:functions.c   ****     }
 117:functions.c   ****     else{
 118:functions.c   ****         BRAKEn_Write(0);
 262              		.loc 1 118 0
 263 0016 0020     		movs	r0, #0
 264 0018 FFF7FEFF 		bl	BRAKEn_Write
 265              	.LVL34:
 119:functions.c   ****         _braken_state = 0;
 266              		.loc 1 119 0
 267 001c 0022     		movs	r2, #0
 268 001e 014B     		ldr	r3, .L13
 269 0020 1A70     		strb	r2, [r3]
 270 0022 08BD     		pop	{r3, pc}
 271              	.L14:
 272              		.align	2
 273              	.L13:
 274 0024 00000000 		.word	_braken_state
 275              		.cfi_endproc
 276              	.LFE68:
 277              		.size	HandBrake, .-HandBrake
 278              		.global	__aeabi_i2f
 279              		.global	__aeabi_fdiv
 280              		.section	.text.ProcessCommandMsg,"ax",%progbits
ARM GAS  C:\Users\GONZAL~1\AppData\Local\Temp\ccpbowfd.s 			page 8


 281              		.align	2
 282              		.global	ProcessCommandMsg
 283              		.thumb
 284              		.thumb_func
 285              		.type	ProcessCommandMsg, %function
 286              	ProcessCommandMsg:
 287              	.LFB67:
  35:functions.c   ****     //check received message for any valid command and execute it if necessary or report old value
 288              		.loc 1 35 0
 289              		.cfi_startproc
 290              		@ args = 0, pretend = 0, frame = 0
 291              		@ frame_needed = 0, uses_anonymous_args = 0
 292 0000 F8B5     		push	{r3, r4, r5, r6, r7, lr}
 293              		.cfi_def_cfa_offset 24
 294              		.cfi_offset 3, -24
 295              		.cfi_offset 4, -20
 296              		.cfi_offset 5, -16
 297              		.cfi_offset 6, -12
 298              		.cfi_offset 7, -8
 299              		.cfi_offset 14, -4
 300              	.LVL35:
  45:functions.c   ****         if(strlen(RB.valstr) > 0){
 301              		.loc 1 45 0
 302 0002 514B     		ldr	r3, .L37
 303 0004 1B78     		ldrb	r3, [r3]	@ zero_extendqisi2
 304 0006 502B     		cmp	r3, #80
 305 0008 0AD1     		bne	.L16
  46:functions.c   ****             updatePID = TRUE;
 306              		.loc 1 46 0
 307 000a 4F4B     		ldr	r3, .L37
 308 000c 5B78     		ldrb	r3, [r3, #1]	@ zero_extendqisi2
 309 000e 002B     		cmp	r3, #0
 310 0010 6BD0     		beq	.L29
 311              	.LVL36:
  48:functions.c   ****             //sprintf(msg,"&%c: %s\r\n",RB.cmd,RB.valstr);
 312              		.loc 1 48 0
 313 0012 4E48     		ldr	r0, .L37+4
 314 0014 FFF7FEFF 		bl	atoi
 315              	.LVL37:
 316 0018 4D4B     		ldr	r3, .L37+8
 317 001a 5860     		str	r0, [r3, #4]
  47:functions.c   ****             PB.pVal = atoi(RB.valstr);
 318              		.loc 1 47 0
 319 001c 0123     		movs	r3, #1
 320 001e 71E0     		b	.L17
 321              	.LVL38:
 322              	.L16:
  53:functions.c   ****         if(strlen(RB.valstr) > 0){
 323              		.loc 1 53 0
 324 0020 492B     		cmp	r3, #73
 325 0022 0AD1     		bne	.L18
  54:functions.c   ****             updatePID = TRUE;
 326              		.loc 1 54 0
 327 0024 484B     		ldr	r3, .L37
 328 0026 5B78     		ldrb	r3, [r3, #1]	@ zero_extendqisi2
 329 0028 002B     		cmp	r3, #0
 330 002a 60D0     		beq	.L30
ARM GAS  C:\Users\GONZAL~1\AppData\Local\Temp\ccpbowfd.s 			page 9


 331              	.LVL39:
  56:functions.c   ****             //sprintf(msg,"&%c: %s\r\n",RB.cmd,RB.valstr);
 332              		.loc 1 56 0
 333 002c 4748     		ldr	r0, .L37+4
 334 002e FFF7FEFF 		bl	atoi
 335              	.LVL40:
 336 0032 474B     		ldr	r3, .L37+8
 337 0034 9860     		str	r0, [r3, #8]
  55:functions.c   ****             PB.iVal = atoi(RB.valstr);
 338              		.loc 1 55 0
 339 0036 0123     		movs	r3, #1
 340 0038 64E0     		b	.L17
 341              	.LVL41:
 342              	.L18:
  61:functions.c   ****         if(strlen(RB.valstr) > 0){
 343              		.loc 1 61 0
 344 003a 442B     		cmp	r3, #68
 345 003c 0AD1     		bne	.L19
  62:functions.c   ****             updatePID = TRUE;
 346              		.loc 1 62 0
 347 003e 424B     		ldr	r3, .L37
 348 0040 5B78     		ldrb	r3, [r3, #1]	@ zero_extendqisi2
 349 0042 002B     		cmp	r3, #0
 350 0044 55D0     		beq	.L31
 351              	.LVL42:
  64:functions.c   ****             //sprintf(msg,"&%c: %s\r\n",RB.cmd,RB.valstr);
 352              		.loc 1 64 0
 353 0046 4148     		ldr	r0, .L37+4
 354 0048 FFF7FEFF 		bl	atoi
 355              	.LVL43:
 356 004c 404B     		ldr	r3, .L37+8
 357 004e D860     		str	r0, [r3, #12]
  63:functions.c   ****             PB.dVal = atoi(RB.valstr);
 358              		.loc 1 63 0
 359 0050 0123     		movs	r3, #1
 360 0052 57E0     		b	.L17
 361              	.LVL44:
 362              	.L19:
  69:functions.c   ****         //UART_PutString("&S");
 363              		.loc 1 69 0
 364 0054 732B     		cmp	r3, #115
 365 0056 04D1     		bne	.L20
  71:functions.c   ****     }
 366              		.loc 1 71 0
 367 0058 0122     		movs	r2, #1
 368 005a 3E4B     		ldr	r3, .L37+12
 369 005c 1A70     		strb	r2, [r3]
  43:functions.c   ****     
 370              		.loc 1 43 0
 371 005e 0023     		movs	r3, #0
 372 0060 50E0     		b	.L17
 373              	.L20:
  73:functions.c   ****         CySoftwareReset();
 374              		.loc 1 73 0
 375 0062 712B     		cmp	r3, #113
 376 0064 03D1     		bne	.L21
  74:functions.c   ****     }
ARM GAS  C:\Users\GONZAL~1\AppData\Local\Temp\ccpbowfd.s 			page 10


 377              		.loc 1 74 0
 378 0066 FFF7FEFF 		bl	CySoftwareReset
 379              	.LVL45:
  43:functions.c   ****     
 380              		.loc 1 43 0
 381 006a 0023     		movs	r3, #0
 382 006c 4AE0     		b	.L17
 383              	.L21:
  76:functions.c   ****         //UART_PutString("&X");
 384              		.loc 1 76 0
 385 006e 782B     		cmp	r3, #120
 386 0070 03D1     		bne	.L22
  78:functions.c   ****     }
 387              		.loc 1 78 0
 388 0072 0023     		movs	r3, #0
 389 0074 374A     		ldr	r2, .L37+12
 390 0076 1370     		strb	r3, [r2]
 391 0078 44E0     		b	.L17
 392              	.L22:
  80:functions.c   ****         HandBrake();
 393              		.loc 1 80 0
 394 007a 622B     		cmp	r3, #98
 395 007c 03D1     		bne	.L23
  81:functions.c   ****     }
 396              		.loc 1 81 0
 397 007e FFF7FEFF 		bl	HandBrake
 398              	.LVL46:
  43:functions.c   ****     
 399              		.loc 1 43 0
 400 0082 0023     		movs	r3, #0
 401 0084 3EE0     		b	.L17
 402              	.L23:
  83:functions.c   ****         if(strlen(RB.valstr) > 0){
 403              		.loc 1 83 0
 404 0086 212B     		cmp	r3, #33
 405 0088 0AD1     		bne	.L24
  84:functions.c   ****             pos_ref = atoi(RB.valstr);
 406              		.loc 1 84 0
 407 008a 2F4B     		ldr	r3, .L37
 408 008c 5B78     		ldrb	r3, [r3, #1]	@ zero_extendqisi2
 409 008e 002B     		cmp	r3, #0
 410 0090 31D0     		beq	.L32
  85:functions.c   ****         }
 411              		.loc 1 85 0
 412 0092 2E48     		ldr	r0, .L37+4
 413 0094 FFF7FEFF 		bl	atoi
 414              	.LVL47:
 415 0098 2F4B     		ldr	r3, .L37+16
 416 009a 1860     		str	r0, [r3]
  43:functions.c   ****     
 417              		.loc 1 43 0
 418 009c 0023     		movs	r3, #0
 419 009e 31E0     		b	.L17
 420              	.L24:
  88:functions.c   ****         if(strlen(RB.valstr) > 0){
 421              		.loc 1 88 0
 422 00a0 232B     		cmp	r3, #35
ARM GAS  C:\Users\GONZAL~1\AppData\Local\Temp\ccpbowfd.s 			page 11


 423 00a2 09D1     		bne	.L25
  89:functions.c   ****             speed_ref = atoi(RB.valstr);
 424              		.loc 1 89 0
 425 00a4 284B     		ldr	r3, .L37
 426 00a6 5B78     		ldrb	r3, [r3, #1]	@ zero_extendqisi2
 427 00a8 3BB3     		cbz	r3, .L33
  90:functions.c   ****         }
 428              		.loc 1 90 0
 429 00aa 2848     		ldr	r0, .L37+4
 430 00ac FFF7FEFF 		bl	atoi
 431              	.LVL48:
 432 00b0 2A4B     		ldr	r3, .L37+20
 433 00b2 1860     		str	r0, [r3]
  43:functions.c   ****     
 434              		.loc 1 43 0
 435 00b4 0023     		movs	r3, #0
 436 00b6 25E0     		b	.L17
 437              	.L25:
  93:functions.c   ****         if(strlen(RB.valstr) > 0){
 438              		.loc 1 93 0
 439 00b8 242B     		cmp	r3, #36
 440 00ba 09D1     		bne	.L26
  94:functions.c   ****             tension_ref = atoi(RB.valstr);
 441              		.loc 1 94 0
 442 00bc 224B     		ldr	r3, .L37
 443 00be 5B78     		ldrb	r3, [r3, #1]	@ zero_extendqisi2
 444 00c0 EBB1     		cbz	r3, .L34
  95:functions.c   ****         }
 445              		.loc 1 95 0
 446 00c2 2248     		ldr	r0, .L37+4
 447 00c4 FFF7FEFF 		bl	atoi
 448              	.LVL49:
 449 00c8 254B     		ldr	r3, .L37+24
 450 00ca 1860     		str	r0, [r3]
  43:functions.c   ****     
 451              		.loc 1 43 0
 452 00cc 0023     		movs	r3, #0
 453 00ce 19E0     		b	.L17
 454              	.L26:
  98:functions.c   ****         pos_ref = 20;
 455              		.loc 1 98 0
 456 00d0 312B     		cmp	r3, #49
 457 00d2 04D1     		bne	.L27
  99:functions.c   ****     }
 458              		.loc 1 99 0
 459 00d4 1422     		movs	r2, #20
 460 00d6 204B     		ldr	r3, .L37+16
 461 00d8 1A60     		str	r2, [r3]
  43:functions.c   ****     
 462              		.loc 1 43 0
 463 00da 0023     		movs	r3, #0
 464 00dc 12E0     		b	.L17
 465              	.L27:
 101:functions.c   ****         pos_ref = 0;
 466              		.loc 1 101 0
 467 00de 302B     		cmp	r3, #48
 468 00e0 0FD1     		bne	.L35
ARM GAS  C:\Users\GONZAL~1\AppData\Local\Temp\ccpbowfd.s 			page 12


 102:functions.c   ****     }
 469              		.loc 1 102 0
 470 00e2 0023     		movs	r3, #0
 471 00e4 1C4A     		ldr	r2, .L37+16
 472 00e6 1360     		str	r3, [r2]
 473 00e8 0CE0     		b	.L17
 474              	.L29:
  43:functions.c   ****     
 475              		.loc 1 43 0
 476 00ea 0023     		movs	r3, #0
 477 00ec 0AE0     		b	.L17
 478              	.L30:
 479 00ee 0023     		movs	r3, #0
 480 00f0 08E0     		b	.L17
 481              	.L31:
 482 00f2 0023     		movs	r3, #0
 483 00f4 06E0     		b	.L17
 484              	.L32:
 485 00f6 0023     		movs	r3, #0
 486 00f8 04E0     		b	.L17
 487              	.L33:
 488 00fa 0023     		movs	r3, #0
 489 00fc 02E0     		b	.L17
 490              	.L34:
 491 00fe 0023     		movs	r3, #0
 492 0100 00E0     		b	.L17
 493              	.L35:
 494 0102 0023     		movs	r3, #0
 495              	.LVL50:
 496              	.L17:
 105:functions.c   ****         PID_setCoeffs(&speed_pid_,(float)PB.pVal/100.0,(float)PB.iVal/100.0,(float)PB.dVal/100.0);
 497              		.loc 1 105 0
 498 0104 F3B1     		cbz	r3, .L15
 106:functions.c   ****         updatePID = FALSE;
 499              		.loc 1 106 0
 500 0106 124C     		ldr	r4, .L37+8
 501 0108 6068     		ldr	r0, [r4, #4]
 502 010a FFF7FEFF 		bl	__aeabi_i2f
 503              	.LVL51:
 504 010e 0646     		mov	r6, r0
 505 0110 A068     		ldr	r0, [r4, #8]
 506 0112 FFF7FEFF 		bl	__aeabi_i2f
 507              	.LVL52:
 508 0116 0746     		mov	r7, r0
 509 0118 E068     		ldr	r0, [r4, #12]
 510 011a FFF7FEFF 		bl	__aeabi_i2f
 511              	.LVL53:
 512 011e 1149     		ldr	r1, .L37+28
 513 0120 FFF7FEFF 		bl	__aeabi_fdiv
 514              	.LVL54:
 515 0124 0546     		mov	r5, r0
 516 0126 0F49     		ldr	r1, .L37+28
 517 0128 3846     		mov	r0, r7
 518 012a FFF7FEFF 		bl	__aeabi_fdiv
 519              	.LVL55:
 520 012e 0446     		mov	r4, r0
 521 0130 0C49     		ldr	r1, .L37+28
ARM GAS  C:\Users\GONZAL~1\AppData\Local\Temp\ccpbowfd.s 			page 13


 522 0132 3046     		mov	r0, r6
 523 0134 FFF7FEFF 		bl	__aeabi_fdiv
 524              	.LVL56:
 525 0138 2B46     		mov	r3, r5
 526 013a 2246     		mov	r2, r4
 527 013c 0146     		mov	r1, r0
 528 013e 0A48     		ldr	r0, .L37+32
 529 0140 FFF7FEFF 		bl	PID_setCoeffs
 530              	.LVL57:
 531              	.L15:
 532 0144 F8BD     		pop	{r3, r4, r5, r6, r7, pc}
 533              	.L38:
 534 0146 00BF     		.align	2
 535              	.L37:
 536 0148 00000000 		.word	RB
 537 014c 01000000 		.word	RB+1
 538 0150 00000000 		.word	PB
 539 0154 00000000 		.word	ContinuouslySendData
 540 0158 00000000 		.word	pos_ref
 541 015c 00000000 		.word	speed_ref
 542 0160 00000000 		.word	tension_ref
 543 0164 0000C842 		.word	1120403456
 544 0168 00000000 		.word	speed_pid_
 545              		.cfi_endproc
 546              	.LFE67:
 547              		.size	ProcessCommandMsg, .-ProcessCommandMsg
 548              		.section	.text.StoreResults,"ax",%progbits
 549              		.align	2
 550              		.global	StoreResults
 551              		.thumb
 552              		.thumb_func
 553              		.type	StoreResults, %function
 554              	StoreResults:
 555              	.LFB69:
 120:functions.c   ****     }
 121:functions.c   **** }
 122:functions.c   **** 
 123:functions.c   **** int16 * StoreResults() // store ADC conversion result in a sensor data array
 124:functions.c   **** {
 556              		.loc 1 124 0
 557              		.cfi_startproc
 558              		@ args = 0, pretend = 0, frame = 0
 559              		@ frame_needed = 0, uses_anonymous_args = 0
 560 0000 10B5     		push	{r4, lr}
 561              		.cfi_def_cfa_offset 8
 562              		.cfi_offset 4, -8
 563              		.cfi_offset 14, -4
 564              	.LVL58:
 125:functions.c   **** 	uint16 i;
 126:functions.c   ****     static int16 dest[NUM_SENSORS];
 127:functions.c   **** 	
 128:functions.c   **** 	for (i = 0; i < NUM_SENSORS; i++) {
 565              		.loc 1 128 0
 566 0002 0024     		movs	r4, #0
 567 0004 07E0     		b	.L40
 568              	.LVL59:
 569              	.L41:
ARM GAS  C:\Users\GONZAL~1\AppData\Local\Temp\ccpbowfd.s 			page 14


 129:functions.c   **** 		dest[i] = ADC_TS_GetResult16(i);
 570              		.loc 1 129 0 discriminator 3
 571 0006 2046     		mov	r0, r4
 572 0008 FFF7FEFF 		bl	ADC_TS_GetResult16
 573              	.LVL60:
 574 000c 044B     		ldr	r3, .L43
 575 000e 23F81400 		strh	r0, [r3, r4, lsl #1]	@ movhi
 128:functions.c   **** 		dest[i] = ADC_TS_GetResult16(i);
 576              		.loc 1 128 0 discriminator 3
 577 0012 0134     		adds	r4, r4, #1
 578              	.LVL61:
 579 0014 A4B2     		uxth	r4, r4
 580              	.LVL62:
 581              	.L40:
 128:functions.c   **** 		dest[i] = ADC_TS_GetResult16(i);
 582              		.loc 1 128 0 is_stmt 0 discriminator 1
 583 0016 052C     		cmp	r4, #5
 584 0018 F5D9     		bls	.L41
 130:functions.c   **** 	}
 131:functions.c   ****     return dest;
 132:functions.c   **** }
 585              		.loc 1 132 0 is_stmt 1
 586 001a 0148     		ldr	r0, .L43
 587 001c 10BD     		pop	{r4, pc}
 588              	.LVL63:
 589              	.L44:
 590 001e 00BF     		.align	2
 591              	.L43:
 592 0020 00000000 		.word	.LANCHOR0
 593              		.cfi_endproc
 594              	.LFE69:
 595              		.size	StoreResults, .-StoreResults
 596              		.comm	_braken_state,1,1
 597              		.comm	TS_array,4,4
 598              		.comm	msg,20,4
 599              		.comm	_state_,4,4
 600              		.comm	_uart_Reset,1,1
 601              		.comm	SendEmulatedData,1,1
 602              		.comm	SendSingleByte,1,1
 603              		.comm	ContinuouslySendData,1,1
 604              		.comm	Ch,1,1
 605              		.comm	PB,16,4
 606              		.comm	RB,20,4
 607              		.bss
 608              		.align	2
 609              		.set	.LANCHOR0,. + 0
 610              		.type	dest.8202, %object
 611              		.size	dest.8202, 12
 612              	dest.8202:
 613 0000 00000000 		.space	12
 613      00000000 
 613      00000000 
 614              		.text
 615              	.Letext0:
 616              		.file 2 "c:\\program files (x86)\\cypress\\psoc creator\\4.1\\psoc creator\\import\\gnu\\arm\\5.4.
 617              		.file 3 "c:\\program files (x86)\\cypress\\psoc creator\\4.1\\psoc creator\\import\\gnu\\arm\\5.4.
 618              		.file 4 "Generated_Source\\PSoC5/cytypes.h"
ARM GAS  C:\Users\GONZAL~1\AppData\Local\Temp\ccpbowfd.s 			page 15


 619              		.file 5 "./pid.h"
 620              		.file 6 "./myUART.h"
 621              		.file 7 "./global.h"
 622              		.file 8 "Generated_Source\\PSoC5/core_cm3.h"
 623              		.file 9 "./functions.h"
 624              		.file 10 "Generated_Source\\PSoC5/BRAKEn.h"
 625              		.file 11 "c:\\program files (x86)\\cypress\\psoc creator\\4.1\\psoc creator\\import\\gnu\\arm\\5.4
 626              		.file 12 "Generated_Source\\PSoC5/CyLib.h"
 627              		.file 13 "Generated_Source\\PSoC5/ADC_TS.h"
 628              		.file 14 "c:\\program files (x86)\\cypress\\psoc creator\\4.1\\psoc creator\\import\\gnu\\arm\\5.4