ARM GAS  C:\Users\GONZAL~1\AppData\Local\Temp\ccW9qedo.s 			page 1


   1              		.syntax unified
   2              		.cpu cortex-m3
   3              		.fpu softvfp
   4              		.eabi_attribute 20, 1
   5              		.eabi_attribute 21, 1
   6              		.eabi_attribute 23, 3
   7              		.eabi_attribute 24, 1
   8              		.eabi_attribute 25, 1
   9              		.eabi_attribute 26, 1
  10              		.eabi_attribute 30, 1
  11              		.eabi_attribute 34, 1
  12              		.eabi_attribute 18, 4
  13              		.thumb
  14              		.syntax unified
  15              		.file	"isr_HA.c"
  16              		.text
  17              	.Ltext0:
  18              		.cfi_sections	.debug_frame
  19              		.section	.text.isr_HA_Interrupt,"ax",%progbits
  20              		.align	2
  21              		.global	isr_HA_Interrupt
  22              		.thumb
  23              		.thumb_func
  24              		.type	isr_HA_Interrupt, %function
  25              	isr_HA_Interrupt:
  26              	.LFB3:
  27              		.file 1 "isr_HA.c"
   1:isr_HA.c      **** /*******************************************************************************
   2:isr_HA.c      **** * File Name: isr_HA.c  
   3:isr_HA.c      **** * Version 1.70
   4:isr_HA.c      **** *
   5:isr_HA.c      **** *  Description:
   6:isr_HA.c      **** *   API for controlling the state of an interrupt.
   7:isr_HA.c      **** *
   8:isr_HA.c      **** *
   9:isr_HA.c      **** *  Note:
  10:isr_HA.c      **** *
  11:isr_HA.c      **** ********************************************************************************
  12:isr_HA.c      **** * Copyright 2008-2015, Cypress Semiconductor Corporation.  All rights reserved.
  13:isr_HA.c      **** * You may use this file only in accordance with the license, terms, conditions, 
  14:isr_HA.c      **** * disclaimers, and limitations in the end user license agreement accompanying 
  15:isr_HA.c      **** * the software package with which this file was provided.
  16:isr_HA.c      **** *******************************************************************************/
  17:isr_HA.c      **** 
  18:isr_HA.c      **** 
  19:isr_HA.c      **** #include <cydevice_trm.h>
  20:isr_HA.c      **** #include <CyLib.h>
  21:isr_HA.c      **** #include <isr_HA.h>
  22:isr_HA.c      **** #include "cyapicallbacks.h"
  23:isr_HA.c      **** 
  24:isr_HA.c      **** #if !defined(isr_HA__REMOVED) /* Check for removal by optimization */
  25:isr_HA.c      **** 
  26:isr_HA.c      **** /*******************************************************************************
  27:isr_HA.c      **** *  Place your includes, defines and code here 
  28:isr_HA.c      **** ********************************************************************************/
  29:isr_HA.c      **** /* `#START isr_HA_intc` */
  30:isr_HA.c      **** #include <Timer_ha.h>
ARM GAS  C:\Users\GONZAL~1\AppData\Local\Temp\ccW9qedo.s 			page 2


  31:isr_HA.c      **** #include <DirCounter.h>
  32:isr_HA.c      ****     
  33:isr_HA.c      **** volatile int32_t t_ha;
  34:isr_HA.c      **** volatile int32_t ca;
  35:isr_HA.c      **** volatile int32_t ma;
  36:isr_HA.c      **** volatile int8 rotor_direction;
  37:isr_HA.c      ****     
  38:isr_HA.c      **** int16 last_count, aux;
  39:isr_HA.c      ****     
  40:isr_HA.c      **** /* `#END` */
  41:isr_HA.c      **** 
  42:isr_HA.c      **** #ifndef CYINT_IRQ_BASE
  43:isr_HA.c      **** #define CYINT_IRQ_BASE      16
  44:isr_HA.c      **** #endif /* CYINT_IRQ_BASE */
  45:isr_HA.c      **** #ifndef CYINT_VECT_TABLE
  46:isr_HA.c      **** #define CYINT_VECT_TABLE    ((cyisraddress **) CYREG_NVIC_VECT_OFFSET)
  47:isr_HA.c      **** #endif /* CYINT_VECT_TABLE */
  48:isr_HA.c      **** 
  49:isr_HA.c      **** /* Declared in startup, used to set unused interrupts to. */
  50:isr_HA.c      **** CY_ISR_PROTO(IntDefaultHandler);
  51:isr_HA.c      **** 
  52:isr_HA.c      **** 
  53:isr_HA.c      **** /*******************************************************************************
  54:isr_HA.c      **** * Function Name: isr_HA_Start
  55:isr_HA.c      **** ********************************************************************************
  56:isr_HA.c      **** *
  57:isr_HA.c      **** * Summary:
  58:isr_HA.c      **** *  Set up the interrupt and enable it. This function disables the interrupt, 
  59:isr_HA.c      **** *  sets the default interrupt vector, sets the priority from the value in the
  60:isr_HA.c      **** *  Design Wide Resources Interrupt Editor, then enables the interrupt to the 
  61:isr_HA.c      **** *  interrupt controller.
  62:isr_HA.c      **** *
  63:isr_HA.c      **** * Parameters:  
  64:isr_HA.c      **** *   None
  65:isr_HA.c      **** *
  66:isr_HA.c      **** * Return:
  67:isr_HA.c      **** *   None
  68:isr_HA.c      **** *
  69:isr_HA.c      **** *******************************************************************************/
  70:isr_HA.c      **** void isr_HA_Start(void)
  71:isr_HA.c      **** {
  72:isr_HA.c      ****     /* For all we know the interrupt is active. */
  73:isr_HA.c      ****     isr_HA_Disable();
  74:isr_HA.c      **** 
  75:isr_HA.c      ****     /* Set the ISR to point to the isr_HA Interrupt. */
  76:isr_HA.c      ****     isr_HA_SetVector(&isr_HA_Interrupt);
  77:isr_HA.c      **** 
  78:isr_HA.c      ****     /* Set the priority. */
  79:isr_HA.c      ****     isr_HA_SetPriority((uint8)isr_HA_INTC_PRIOR_NUMBER);
  80:isr_HA.c      **** 
  81:isr_HA.c      ****     /* Enable it. */
  82:isr_HA.c      ****     isr_HA_Enable();
  83:isr_HA.c      **** }
  84:isr_HA.c      **** 
  85:isr_HA.c      **** 
  86:isr_HA.c      **** /*******************************************************************************
  87:isr_HA.c      **** * Function Name: isr_HA_StartEx
ARM GAS  C:\Users\GONZAL~1\AppData\Local\Temp\ccW9qedo.s 			page 3


  88:isr_HA.c      **** ********************************************************************************
  89:isr_HA.c      **** *
  90:isr_HA.c      **** * Summary:
  91:isr_HA.c      **** *  Sets up the interrupt and enables it. This function disables the interrupt,
  92:isr_HA.c      **** *  sets the interrupt vector based on the address passed in, sets the priority 
  93:isr_HA.c      **** *  from the value in the Design Wide Resources Interrupt Editor, then enables 
  94:isr_HA.c      **** *  the interrupt to the interrupt controller.
  95:isr_HA.c      **** *  
  96:isr_HA.c      **** *  When defining ISR functions, the CY_ISR and CY_ISR_PROTO macros should be 
  97:isr_HA.c      **** *  used to provide consistent definition across compilers:
  98:isr_HA.c      **** *  
  99:isr_HA.c      **** *  Function definition example:
 100:isr_HA.c      **** *   CY_ISR(MyISR)
 101:isr_HA.c      **** *   {
 102:isr_HA.c      **** *   }
 103:isr_HA.c      **** *   Function prototype example:
 104:isr_HA.c      **** *   CY_ISR_PROTO(MyISR);
 105:isr_HA.c      **** *
 106:isr_HA.c      **** * Parameters:  
 107:isr_HA.c      **** *   address: Address of the ISR to set in the interrupt vector table.
 108:isr_HA.c      **** *
 109:isr_HA.c      **** * Return:
 110:isr_HA.c      **** *   None
 111:isr_HA.c      **** *
 112:isr_HA.c      **** *******************************************************************************/
 113:isr_HA.c      **** void isr_HA_StartEx(cyisraddress address)
 114:isr_HA.c      **** {
 115:isr_HA.c      ****     /* For all we know the interrupt is active. */
 116:isr_HA.c      ****     isr_HA_Disable();
 117:isr_HA.c      **** 
 118:isr_HA.c      ****     /* Set the ISR to point to the isr_HA Interrupt. */
 119:isr_HA.c      ****     isr_HA_SetVector(address);
 120:isr_HA.c      **** 
 121:isr_HA.c      ****     /* Set the priority. */
 122:isr_HA.c      ****     isr_HA_SetPriority((uint8)isr_HA_INTC_PRIOR_NUMBER);
 123:isr_HA.c      **** 
 124:isr_HA.c      ****     /* Enable it. */
 125:isr_HA.c      ****     isr_HA_Enable();
 126:isr_HA.c      **** }
 127:isr_HA.c      **** 
 128:isr_HA.c      **** 
 129:isr_HA.c      **** /*******************************************************************************
 130:isr_HA.c      **** * Function Name: isr_HA_Stop
 131:isr_HA.c      **** ********************************************************************************
 132:isr_HA.c      **** *
 133:isr_HA.c      **** * Summary:
 134:isr_HA.c      **** *   Disables and removes the interrupt.
 135:isr_HA.c      **** *
 136:isr_HA.c      **** * Parameters:  
 137:isr_HA.c      **** *   None
 138:isr_HA.c      **** *
 139:isr_HA.c      **** * Return:
 140:isr_HA.c      **** *   None
 141:isr_HA.c      **** *
 142:isr_HA.c      **** *******************************************************************************/
 143:isr_HA.c      **** void isr_HA_Stop(void)
 144:isr_HA.c      **** {
ARM GAS  C:\Users\GONZAL~1\AppData\Local\Temp\ccW9qedo.s 			page 4


 145:isr_HA.c      ****     /* Disable this interrupt. */
 146:isr_HA.c      ****     isr_HA_Disable();
 147:isr_HA.c      **** 
 148:isr_HA.c      ****     /* Set the ISR to point to the passive one. */
 149:isr_HA.c      ****     isr_HA_SetVector(&IntDefaultHandler);
 150:isr_HA.c      **** }
 151:isr_HA.c      **** 
 152:isr_HA.c      **** 
 153:isr_HA.c      **** /*******************************************************************************
 154:isr_HA.c      **** * Function Name: isr_HA_Interrupt
 155:isr_HA.c      **** ********************************************************************************
 156:isr_HA.c      **** *
 157:isr_HA.c      **** * Summary:
 158:isr_HA.c      **** *   The default Interrupt Service Routine for isr_HA.
 159:isr_HA.c      **** *
 160:isr_HA.c      **** *   Add custom code between the coments to keep the next version of this file
 161:isr_HA.c      **** *   from over writting your code.
 162:isr_HA.c      **** *
 163:isr_HA.c      **** * Parameters:  
 164:isr_HA.c      **** *
 165:isr_HA.c      **** * Return:
 166:isr_HA.c      **** *   None
 167:isr_HA.c      **** *
 168:isr_HA.c      **** *******************************************************************************/
 169:isr_HA.c      **** CY_ISR(isr_HA_Interrupt)
 170:isr_HA.c      **** {
  28              		.loc 1 170 0
  29              		.cfi_startproc
  30              		@ args = 0, pretend = 0, frame = 0
  31              		@ frame_needed = 0, uses_anonymous_args = 0
  32 0000 08B5     		push	{r3, lr}
  33              		.cfi_def_cfa_offset 8
  34              		.cfi_offset 3, -8
  35              		.cfi_offset 14, -4
 171:isr_HA.c      ****     #ifdef isr_HA_INTERRUPT_INTERRUPT_CALLBACK
 172:isr_HA.c      ****         isr_HA_Interrupt_InterruptCallback();
 173:isr_HA.c      ****     #endif /* isr_HA_INTERRUPT_INTERRUPT_CALLBACK */ 
 174:isr_HA.c      **** 
 175:isr_HA.c      ****     /*  Place your Interrupt code here. */
 176:isr_HA.c      ****     /* `#START isr_HA_Interrupt` */
 177:isr_HA.c      **** 
 178:isr_HA.c      ****     ca = Timer_ha_ReadCounter(); // read counter
  36              		.loc 1 178 0
  37 0002 FFF7FEFF 		bl	Timer_ha_ReadCounter
  38              	.LVL0:
  39 0006 074A     		ldr	r2, .L3
  40 0008 1060     		str	r0, [r2]
 179:isr_HA.c      ****     t_ha = -1*(ca+ma); //
  41              		.loc 1 179 0
  42 000a 1068     		ldr	r0, [r2]
  43 000c 0649     		ldr	r1, .L3+4
  44 000e 0B68     		ldr	r3, [r1]
  45 0010 0344     		add	r3, r3, r0
  46 0012 5B42     		negs	r3, r3
  47 0014 0548     		ldr	r0, .L3+8
  48 0016 0360     		str	r3, [r0]
 180:isr_HA.c      ****     ma = ca;
ARM GAS  C:\Users\GONZAL~1\AppData\Local\Temp\ccW9qedo.s 			page 5


  49              		.loc 1 180 0
  50 0018 1368     		ldr	r3, [r2]
  51 001a 0B60     		str	r3, [r1]
 181:isr_HA.c      ****     Timer_ha_WriteCounter(0); // reset the counter
  52              		.loc 1 181 0
  53 001c 0020     		movs	r0, #0
  54 001e FFF7FEFF 		bl	Timer_ha_WriteCounter
  55              	.LVL1:
  56 0022 08BD     		pop	{r3, pc}
  57              	.L4:
  58              		.align	2
  59              	.L3:
  60 0024 00000000 		.word	ca
  61 0028 00000000 		.word	ma
  62 002c 00000000 		.word	t_ha
  63              		.cfi_endproc
  64              	.LFE3:
  65              		.size	isr_HA_Interrupt, .-isr_HA_Interrupt
  66              		.section	.text.isr_HA_SetVector,"ax",%progbits
  67              		.align	2
  68              		.global	isr_HA_SetVector
  69              		.thumb
  70              		.thumb_func
  71              		.type	isr_HA_SetVector, %function
  72              	isr_HA_SetVector:
  73              	.LFB4:
 182:isr_HA.c      ****    
 183:isr_HA.c      ****     /* `#END` */
 184:isr_HA.c      **** }
 185:isr_HA.c      **** 
 186:isr_HA.c      **** 
 187:isr_HA.c      **** /*******************************************************************************
 188:isr_HA.c      **** * Function Name: isr_HA_SetVector
 189:isr_HA.c      **** ********************************************************************************
 190:isr_HA.c      **** *
 191:isr_HA.c      **** * Summary:
 192:isr_HA.c      **** *   Change the ISR vector for the Interrupt. Note calling isr_HA_Start
 193:isr_HA.c      **** *   will override any effect this method would have had. To set the vector 
 194:isr_HA.c      **** *   before the component has been started use isr_HA_StartEx instead.
 195:isr_HA.c      **** * 
 196:isr_HA.c      **** *   When defining ISR functions, the CY_ISR and CY_ISR_PROTO macros should be 
 197:isr_HA.c      **** *   used to provide consistent definition across compilers:
 198:isr_HA.c      **** *
 199:isr_HA.c      **** *   Function definition example:
 200:isr_HA.c      **** *   CY_ISR(MyISR)
 201:isr_HA.c      **** *   {
 202:isr_HA.c      **** *   }
 203:isr_HA.c      **** *
 204:isr_HA.c      **** *   Function prototype example:
 205:isr_HA.c      **** *     CY_ISR_PROTO(MyISR);
 206:isr_HA.c      **** *
 207:isr_HA.c      **** * Parameters:
 208:isr_HA.c      **** *   address: Address of the ISR to set in the interrupt vector table.
 209:isr_HA.c      **** *
 210:isr_HA.c      **** * Return:
 211:isr_HA.c      **** *   None
 212:isr_HA.c      **** *
ARM GAS  C:\Users\GONZAL~1\AppData\Local\Temp\ccW9qedo.s 			page 6


 213:isr_HA.c      **** *******************************************************************************/
 214:isr_HA.c      **** void isr_HA_SetVector(cyisraddress address)
 215:isr_HA.c      **** {
  74              		.loc 1 215 0
  75              		.cfi_startproc
  76              		@ args = 0, pretend = 0, frame = 0
  77              		@ frame_needed = 0, uses_anonymous_args = 0
  78              		@ link register save eliminated.
  79              	.LVL2:
 216:isr_HA.c      ****     cyisraddress * ramVectorTable;
 217:isr_HA.c      **** 
 218:isr_HA.c      ****     ramVectorTable = (cyisraddress *) *CYINT_VECT_TABLE;
  80              		.loc 1 218 0
  81 0000 014B     		ldr	r3, .L6
  82 0002 1B68     		ldr	r3, [r3]
  83              	.LVL3:
 219:isr_HA.c      **** 
 220:isr_HA.c      ****     ramVectorTable[CYINT_IRQ_BASE + (uint32)isr_HA__INTC_NUMBER] = address;
  84              		.loc 1 220 0
  85 0004 9866     		str	r0, [r3, #104]
  86 0006 7047     		bx	lr
  87              	.L7:
  88              		.align	2
  89              	.L6:
  90 0008 08ED00E0 		.word	-536810232
  91              		.cfi_endproc
  92              	.LFE4:
  93              		.size	isr_HA_SetVector, .-isr_HA_SetVector
  94              		.section	.text.isr_HA_GetVector,"ax",%progbits
  95              		.align	2
  96              		.global	isr_HA_GetVector
  97              		.thumb
  98              		.thumb_func
  99              		.type	isr_HA_GetVector, %function
 100              	isr_HA_GetVector:
 101              	.LFB5:
 221:isr_HA.c      **** }
 222:isr_HA.c      **** 
 223:isr_HA.c      **** 
 224:isr_HA.c      **** /*******************************************************************************
 225:isr_HA.c      **** * Function Name: isr_HA_GetVector
 226:isr_HA.c      **** ********************************************************************************
 227:isr_HA.c      **** *
 228:isr_HA.c      **** * Summary:
 229:isr_HA.c      **** *   Gets the "address" of the current ISR vector for the Interrupt.
 230:isr_HA.c      **** *
 231:isr_HA.c      **** * Parameters:
 232:isr_HA.c      **** *   None
 233:isr_HA.c      **** *
 234:isr_HA.c      **** * Return:
 235:isr_HA.c      **** *   Address of the ISR in the interrupt vector table.
 236:isr_HA.c      **** *
 237:isr_HA.c      **** *******************************************************************************/
 238:isr_HA.c      **** cyisraddress isr_HA_GetVector(void)
 239:isr_HA.c      **** {
 102              		.loc 1 239 0
 103              		.cfi_startproc
ARM GAS  C:\Users\GONZAL~1\AppData\Local\Temp\ccW9qedo.s 			page 7


 104              		@ args = 0, pretend = 0, frame = 0
 105              		@ frame_needed = 0, uses_anonymous_args = 0
 106              		@ link register save eliminated.
 240:isr_HA.c      ****     cyisraddress * ramVectorTable;
 241:isr_HA.c      **** 
 242:isr_HA.c      ****     ramVectorTable = (cyisraddress *) *CYINT_VECT_TABLE;
 107              		.loc 1 242 0
 108 0000 014B     		ldr	r3, .L9
 109 0002 1B68     		ldr	r3, [r3]
 110              	.LVL4:
 243:isr_HA.c      **** 
 244:isr_HA.c      ****     return ramVectorTable[CYINT_IRQ_BASE + (uint32)isr_HA__INTC_NUMBER];
 245:isr_HA.c      **** }
 111              		.loc 1 245 0
 112 0004 986E     		ldr	r0, [r3, #104]
 113 0006 7047     		bx	lr
 114              	.L10:
 115              		.align	2
 116              	.L9:
 117 0008 08ED00E0 		.word	-536810232
 118              		.cfi_endproc
 119              	.LFE5:
 120              		.size	isr_HA_GetVector, .-isr_HA_GetVector
 121              		.section	.text.isr_HA_SetPriority,"ax",%progbits
 122              		.align	2
 123              		.global	isr_HA_SetPriority
 124              		.thumb
 125              		.thumb_func
 126              		.type	isr_HA_SetPriority, %function
 127              	isr_HA_SetPriority:
 128              	.LFB6:
 246:isr_HA.c      **** 
 247:isr_HA.c      **** 
 248:isr_HA.c      **** /*******************************************************************************
 249:isr_HA.c      **** * Function Name: isr_HA_SetPriority
 250:isr_HA.c      **** ********************************************************************************
 251:isr_HA.c      **** *
 252:isr_HA.c      **** * Summary:
 253:isr_HA.c      **** *   Sets the Priority of the Interrupt. 
 254:isr_HA.c      **** *
 255:isr_HA.c      **** *   Note calling isr_HA_Start or isr_HA_StartEx will 
 256:isr_HA.c      **** *   override any effect this API would have had. This API should only be called
 257:isr_HA.c      **** *   after isr_HA_Start or isr_HA_StartEx has been called. 
 258:isr_HA.c      **** *   To set the initial priority for the component, use the Design-Wide Resources
 259:isr_HA.c      **** *   Interrupt Editor.
 260:isr_HA.c      **** *
 261:isr_HA.c      **** *   Note This API has no effect on Non-maskable interrupt NMI).
 262:isr_HA.c      **** *
 263:isr_HA.c      **** * Parameters:
 264:isr_HA.c      **** *   priority: Priority of the interrupt, 0 being the highest priority
 265:isr_HA.c      **** *             PSoC 3 and PSoC 5LP: Priority is from 0 to 7.
 266:isr_HA.c      **** *             PSoC 4: Priority is from 0 to 3.
 267:isr_HA.c      **** *
 268:isr_HA.c      **** * Return:
 269:isr_HA.c      **** *   None
 270:isr_HA.c      **** *
 271:isr_HA.c      **** *******************************************************************************/
ARM GAS  C:\Users\GONZAL~1\AppData\Local\Temp\ccW9qedo.s 			page 8


 272:isr_HA.c      **** void isr_HA_SetPriority(uint8 priority)
 273:isr_HA.c      **** {
 129              		.loc 1 273 0
 130              		.cfi_startproc
 131              		@ args = 0, pretend = 0, frame = 0
 132              		@ frame_needed = 0, uses_anonymous_args = 0
 133              		@ link register save eliminated.
 134              	.LVL5:
 274:isr_HA.c      ****     *isr_HA_INTC_PRIOR = priority << 5;
 135              		.loc 1 274 0
 136 0000 4001     		lsls	r0, r0, #5
 137              	.LVL6:
 138 0002 C0B2     		uxtb	r0, r0
 139 0004 014B     		ldr	r3, .L12
 140 0006 1870     		strb	r0, [r3]
 141 0008 7047     		bx	lr
 142              	.L13:
 143 000a 00BF     		.align	2
 144              	.L12:
 145 000c 0AE400E0 		.word	-536812534
 146              		.cfi_endproc
 147              	.LFE6:
 148              		.size	isr_HA_SetPriority, .-isr_HA_SetPriority
 149              		.section	.text.isr_HA_GetPriority,"ax",%progbits
 150              		.align	2
 151              		.global	isr_HA_GetPriority
 152              		.thumb
 153              		.thumb_func
 154              		.type	isr_HA_GetPriority, %function
 155              	isr_HA_GetPriority:
 156              	.LFB7:
 275:isr_HA.c      **** }
 276:isr_HA.c      **** 
 277:isr_HA.c      **** 
 278:isr_HA.c      **** /*******************************************************************************
 279:isr_HA.c      **** * Function Name: isr_HA_GetPriority
 280:isr_HA.c      **** ********************************************************************************
 281:isr_HA.c      **** *
 282:isr_HA.c      **** * Summary:
 283:isr_HA.c      **** *   Gets the Priority of the Interrupt.
 284:isr_HA.c      **** *
 285:isr_HA.c      **** * Parameters:
 286:isr_HA.c      **** *   None
 287:isr_HA.c      **** *
 288:isr_HA.c      **** * Return:
 289:isr_HA.c      **** *   Priority of the interrupt, 0 being the highest priority
 290:isr_HA.c      **** *    PSoC 3 and PSoC 5LP: Priority is from 0 to 7.
 291:isr_HA.c      **** *    PSoC 4: Priority is from 0 to 3.
 292:isr_HA.c      **** *
 293:isr_HA.c      **** *******************************************************************************/
 294:isr_HA.c      **** uint8 isr_HA_GetPriority(void)
 295:isr_HA.c      **** {
 157              		.loc 1 295 0
 158              		.cfi_startproc
 159              		@ args = 0, pretend = 0, frame = 0
 160              		@ frame_needed = 0, uses_anonymous_args = 0
 161              		@ link register save eliminated.
ARM GAS  C:\Users\GONZAL~1\AppData\Local\Temp\ccW9qedo.s 			page 9


 296:isr_HA.c      ****     uint8 priority;
 297:isr_HA.c      **** 
 298:isr_HA.c      **** 
 299:isr_HA.c      ****     priority = *isr_HA_INTC_PRIOR >> 5;
 162              		.loc 1 299 0
 163 0000 014B     		ldr	r3, .L15
 164 0002 1878     		ldrb	r0, [r3]	@ zero_extendqisi2
 165              	.LVL7:
 300:isr_HA.c      **** 
 301:isr_HA.c      ****     return priority;
 302:isr_HA.c      **** }
 166              		.loc 1 302 0
 167 0004 4009     		lsrs	r0, r0, #5
 168              	.LVL8:
 169 0006 7047     		bx	lr
 170              	.L16:
 171              		.align	2
 172              	.L15:
 173 0008 0AE400E0 		.word	-536812534
 174              		.cfi_endproc
 175              	.LFE7:
 176              		.size	isr_HA_GetPriority, .-isr_HA_GetPriority
 177              		.section	.text.isr_HA_Enable,"ax",%progbits
 178              		.align	2
 179              		.global	isr_HA_Enable
 180              		.thumb
 181              		.thumb_func
 182              		.type	isr_HA_Enable, %function
 183              	isr_HA_Enable:
 184              	.LFB8:
 303:isr_HA.c      **** 
 304:isr_HA.c      **** 
 305:isr_HA.c      **** /*******************************************************************************
 306:isr_HA.c      **** * Function Name: isr_HA_Enable
 307:isr_HA.c      **** ********************************************************************************
 308:isr_HA.c      **** *
 309:isr_HA.c      **** * Summary:
 310:isr_HA.c      **** *   Enables the interrupt to the interrupt controller. Do not call this function
 311:isr_HA.c      **** *   unless ISR_Start() has been called or the functionality of the ISR_Start() 
 312:isr_HA.c      **** *   function, which sets the vector and the priority, has been called.
 313:isr_HA.c      **** *
 314:isr_HA.c      **** * Parameters:
 315:isr_HA.c      **** *   None
 316:isr_HA.c      **** *
 317:isr_HA.c      **** * Return:
 318:isr_HA.c      **** *   None
 319:isr_HA.c      **** *
 320:isr_HA.c      **** *******************************************************************************/
 321:isr_HA.c      **** void isr_HA_Enable(void)
 322:isr_HA.c      **** {
 185              		.loc 1 322 0
 186              		.cfi_startproc
 187              		@ args = 0, pretend = 0, frame = 0
 188              		@ frame_needed = 0, uses_anonymous_args = 0
 189              		@ link register save eliminated.
 323:isr_HA.c      ****     /* Enable the general interrupt. */
 324:isr_HA.c      ****     *isr_HA_INTC_SET_EN = isr_HA__INTC_MASK;
ARM GAS  C:\Users\GONZAL~1\AppData\Local\Temp\ccW9qedo.s 			page 10


 190              		.loc 1 324 0
 191 0000 4FF48062 		mov	r2, #1024
 192 0004 014B     		ldr	r3, .L18
 193 0006 1A60     		str	r2, [r3]
 194 0008 7047     		bx	lr
 195              	.L19:
 196 000a 00BF     		.align	2
 197              	.L18:
 198 000c 00E100E0 		.word	-536813312
 199              		.cfi_endproc
 200              	.LFE8:
 201              		.size	isr_HA_Enable, .-isr_HA_Enable
 202              		.section	.text.isr_HA_GetState,"ax",%progbits
 203              		.align	2
 204              		.global	isr_HA_GetState
 205              		.thumb
 206              		.thumb_func
 207              		.type	isr_HA_GetState, %function
 208              	isr_HA_GetState:
 209              	.LFB9:
 325:isr_HA.c      **** }
 326:isr_HA.c      **** 
 327:isr_HA.c      **** 
 328:isr_HA.c      **** /*******************************************************************************
 329:isr_HA.c      **** * Function Name: isr_HA_GetState
 330:isr_HA.c      **** ********************************************************************************
 331:isr_HA.c      **** *
 332:isr_HA.c      **** * Summary:
 333:isr_HA.c      **** *   Gets the state (enabled, disabled) of the Interrupt.
 334:isr_HA.c      **** *
 335:isr_HA.c      **** * Parameters:
 336:isr_HA.c      **** *   None
 337:isr_HA.c      **** *
 338:isr_HA.c      **** * Return:
 339:isr_HA.c      **** *   1 if enabled, 0 if disabled.
 340:isr_HA.c      **** *
 341:isr_HA.c      **** *******************************************************************************/
 342:isr_HA.c      **** uint8 isr_HA_GetState(void)
 343:isr_HA.c      **** {
 210              		.loc 1 343 0
 211              		.cfi_startproc
 212              		@ args = 0, pretend = 0, frame = 0
 213              		@ frame_needed = 0, uses_anonymous_args = 0
 214              		@ link register save eliminated.
 344:isr_HA.c      ****     /* Get the state of the general interrupt. */
 345:isr_HA.c      ****     return ((*isr_HA_INTC_SET_EN & (uint32)isr_HA__INTC_MASK) != 0u) ? 1u:0u;
 215              		.loc 1 345 0
 216 0000 044B     		ldr	r3, .L23
 217 0002 1B68     		ldr	r3, [r3]
 218 0004 13F4806F 		tst	r3, #1024
 219 0008 01D0     		beq	.L22
 220 000a 0120     		movs	r0, #1
 221 000c 7047     		bx	lr
 222              	.L22:
 223 000e 0020     		movs	r0, #0
 346:isr_HA.c      **** }
 224              		.loc 1 346 0
ARM GAS  C:\Users\GONZAL~1\AppData\Local\Temp\ccW9qedo.s 			page 11


 225 0010 7047     		bx	lr
 226              	.L24:
 227 0012 00BF     		.align	2
 228              	.L23:
 229 0014 00E100E0 		.word	-536813312
 230              		.cfi_endproc
 231              	.LFE9:
 232              		.size	isr_HA_GetState, .-isr_HA_GetState
 233              		.section	.text.isr_HA_Disable,"ax",%progbits
 234              		.align	2
 235              		.global	isr_HA_Disable
 236              		.thumb
 237              		.thumb_func
 238              		.type	isr_HA_Disable, %function
 239              	isr_HA_Disable:
 240              	.LFB10:
 347:isr_HA.c      **** 
 348:isr_HA.c      **** 
 349:isr_HA.c      **** /*******************************************************************************
 350:isr_HA.c      **** * Function Name: isr_HA_Disable
 351:isr_HA.c      **** ********************************************************************************
 352:isr_HA.c      **** *
 353:isr_HA.c      **** * Summary:
 354:isr_HA.c      **** *   Disables the Interrupt in the interrupt controller.
 355:isr_HA.c      **** *
 356:isr_HA.c      **** * Parameters:
 357:isr_HA.c      **** *   None
 358:isr_HA.c      **** *
 359:isr_HA.c      **** * Return:
 360:isr_HA.c      **** *   None
 361:isr_HA.c      **** *
 362:isr_HA.c      **** *******************************************************************************/
 363:isr_HA.c      **** void isr_HA_Disable(void)
 364:isr_HA.c      **** {
 241              		.loc 1 364 0
 242              		.cfi_startproc
 243              		@ args = 0, pretend = 0, frame = 0
 244              		@ frame_needed = 0, uses_anonymous_args = 0
 245              		@ link register save eliminated.
 365:isr_HA.c      ****     /* Disable the general interrupt. */
 366:isr_HA.c      ****     *isr_HA_INTC_CLR_EN = isr_HA__INTC_MASK;
 246              		.loc 1 366 0
 247 0000 4FF48062 		mov	r2, #1024
 248 0004 014B     		ldr	r3, .L26
 249 0006 1A60     		str	r2, [r3]
 250 0008 7047     		bx	lr
 251              	.L27:
 252 000a 00BF     		.align	2
 253              	.L26:
 254 000c 80E100E0 		.word	-536813184
 255              		.cfi_endproc
 256              	.LFE10:
 257              		.size	isr_HA_Disable, .-isr_HA_Disable
 258              		.section	.text.isr_HA_Start,"ax",%progbits
 259              		.align	2
 260              		.global	isr_HA_Start
 261              		.thumb
ARM GAS  C:\Users\GONZAL~1\AppData\Local\Temp\ccW9qedo.s 			page 12


 262              		.thumb_func
 263              		.type	isr_HA_Start, %function
 264              	isr_HA_Start:
 265              	.LFB0:
  71:isr_HA.c      ****     /* For all we know the interrupt is active. */
 266              		.loc 1 71 0
 267              		.cfi_startproc
 268              		@ args = 0, pretend = 0, frame = 0
 269              		@ frame_needed = 0, uses_anonymous_args = 0
 270 0000 08B5     		push	{r3, lr}
 271              		.cfi_def_cfa_offset 8
 272              		.cfi_offset 3, -8
 273              		.cfi_offset 14, -4
  73:isr_HA.c      **** 
 274              		.loc 1 73 0
 275 0002 FFF7FEFF 		bl	isr_HA_Disable
 276              	.LVL9:
  76:isr_HA.c      **** 
 277              		.loc 1 76 0
 278 0006 0448     		ldr	r0, .L30
 279 0008 FFF7FEFF 		bl	isr_HA_SetVector
 280              	.LVL10:
  79:isr_HA.c      **** 
 281              		.loc 1 79 0
 282 000c 0720     		movs	r0, #7
 283 000e FFF7FEFF 		bl	isr_HA_SetPriority
 284              	.LVL11:
  82:isr_HA.c      **** }
 285              		.loc 1 82 0
 286 0012 FFF7FEFF 		bl	isr_HA_Enable
 287              	.LVL12:
 288 0016 08BD     		pop	{r3, pc}
 289              	.L31:
 290              		.align	2
 291              	.L30:
 292 0018 00000000 		.word	isr_HA_Interrupt
 293              		.cfi_endproc
 294              	.LFE0:
 295              		.size	isr_HA_Start, .-isr_HA_Start
 296              		.section	.text.isr_HA_StartEx,"ax",%progbits
 297              		.align	2
 298              		.global	isr_HA_StartEx
 299              		.thumb
 300              		.thumb_func
 301              		.type	isr_HA_StartEx, %function
 302              	isr_HA_StartEx:
 303              	.LFB1:
 114:isr_HA.c      ****     /* For all we know the interrupt is active. */
 304              		.loc 1 114 0
 305              		.cfi_startproc
 306              		@ args = 0, pretend = 0, frame = 0
 307              		@ frame_needed = 0, uses_anonymous_args = 0
 308              	.LVL13:
 309 0000 10B5     		push	{r4, lr}
 310              		.cfi_def_cfa_offset 8
 311              		.cfi_offset 4, -8
 312              		.cfi_offset 14, -4
ARM GAS  C:\Users\GONZAL~1\AppData\Local\Temp\ccW9qedo.s 			page 13


 313 0002 0446     		mov	r4, r0
 116:isr_HA.c      **** 
 314              		.loc 1 116 0
 315 0004 FFF7FEFF 		bl	isr_HA_Disable
 316              	.LVL14:
 119:isr_HA.c      **** 
 317              		.loc 1 119 0
 318 0008 2046     		mov	r0, r4
 319 000a FFF7FEFF 		bl	isr_HA_SetVector
 320              	.LVL15:
 122:isr_HA.c      **** 
 321              		.loc 1 122 0
 322 000e 0720     		movs	r0, #7
 323 0010 FFF7FEFF 		bl	isr_HA_SetPriority
 324              	.LVL16:
 125:isr_HA.c      **** }
 325              		.loc 1 125 0
 326 0014 FFF7FEFF 		bl	isr_HA_Enable
 327              	.LVL17:
 328 0018 10BD     		pop	{r4, pc}
 329              		.cfi_endproc
 330              	.LFE1:
 331              		.size	isr_HA_StartEx, .-isr_HA_StartEx
 332 001a 00BF     		.section	.text.isr_HA_Stop,"ax",%progbits
 333              		.align	2
 334              		.global	isr_HA_Stop
 335              		.thumb
 336              		.thumb_func
 337              		.type	isr_HA_Stop, %function
 338              	isr_HA_Stop:
 339              	.LFB2:
 144:isr_HA.c      ****     /* Disable this interrupt. */
 340              		.loc 1 144 0
 341              		.cfi_startproc
 342              		@ args = 0, pretend = 0, frame = 0
 343              		@ frame_needed = 0, uses_anonymous_args = 0
 344 0000 08B5     		push	{r3, lr}
 345              		.cfi_def_cfa_offset 8
 346              		.cfi_offset 3, -8
 347              		.cfi_offset 14, -4
 146:isr_HA.c      **** 
 348              		.loc 1 146 0
 349 0002 FFF7FEFF 		bl	isr_HA_Disable
 350              	.LVL18:
 149:isr_HA.c      **** }
 351              		.loc 1 149 0
 352 0006 0248     		ldr	r0, .L36
 353 0008 FFF7FEFF 		bl	isr_HA_SetVector
 354              	.LVL19:
 355 000c 08BD     		pop	{r3, pc}
 356              	.L37:
 357 000e 00BF     		.align	2
 358              	.L36:
 359 0010 00000000 		.word	IntDefaultHandler
 360              		.cfi_endproc
 361              	.LFE2:
 362              		.size	isr_HA_Stop, .-isr_HA_Stop
ARM GAS  C:\Users\GONZAL~1\AppData\Local\Temp\ccW9qedo.s 			page 14


 363              		.section	.text.isr_HA_SetPending,"ax",%progbits
 364              		.align	2
 365              		.global	isr_HA_SetPending
 366              		.thumb
 367              		.thumb_func
 368              		.type	isr_HA_SetPending, %function
 369              	isr_HA_SetPending:
 370              	.LFB11:
 367:isr_HA.c      **** }
 368:isr_HA.c      **** 
 369:isr_HA.c      **** 
 370:isr_HA.c      **** /*******************************************************************************
 371:isr_HA.c      **** * Function Name: isr_HA_SetPending
 372:isr_HA.c      **** ********************************************************************************
 373:isr_HA.c      **** *
 374:isr_HA.c      **** * Summary:
 375:isr_HA.c      **** *   Causes the Interrupt to enter the pending state, a software method of
 376:isr_HA.c      **** *   generating the interrupt.
 377:isr_HA.c      **** *
 378:isr_HA.c      **** * Parameters:
 379:isr_HA.c      **** *   None
 380:isr_HA.c      **** *
 381:isr_HA.c      **** * Return:
 382:isr_HA.c      **** *   None
 383:isr_HA.c      **** *
 384:isr_HA.c      **** * Side Effects:
 385:isr_HA.c      **** *   If interrupts are enabled and the interrupt is set up properly, the ISR is
 386:isr_HA.c      **** *   entered (depending on the priority of this interrupt and other pending 
 387:isr_HA.c      **** *   interrupts).
 388:isr_HA.c      **** *
 389:isr_HA.c      **** *******************************************************************************/
 390:isr_HA.c      **** void isr_HA_SetPending(void)
 391:isr_HA.c      **** {
 371              		.loc 1 391 0
 372              		.cfi_startproc
 373              		@ args = 0, pretend = 0, frame = 0
 374              		@ frame_needed = 0, uses_anonymous_args = 0
 375              		@ link register save eliminated.
 392:isr_HA.c      ****     *isr_HA_INTC_SET_PD = isr_HA__INTC_MASK;
 376              		.loc 1 392 0
 377 0000 4FF48062 		mov	r2, #1024
 378 0004 014B     		ldr	r3, .L39
 379 0006 1A60     		str	r2, [r3]
 380 0008 7047     		bx	lr
 381              	.L40:
 382 000a 00BF     		.align	2
 383              	.L39:
 384 000c 00E200E0 		.word	-536813056
 385              		.cfi_endproc
 386              	.LFE11:
 387              		.size	isr_HA_SetPending, .-isr_HA_SetPending
 388              		.section	.text.isr_HA_ClearPending,"ax",%progbits
 389              		.align	2
 390              		.global	isr_HA_ClearPending
 391              		.thumb
 392              		.thumb_func
 393              		.type	isr_HA_ClearPending, %function
ARM GAS  C:\Users\GONZAL~1\AppData\Local\Temp\ccW9qedo.s 			page 15


 394              	isr_HA_ClearPending:
 395              	.LFB12:
 393:isr_HA.c      **** }
 394:isr_HA.c      **** 
 395:isr_HA.c      **** 
 396:isr_HA.c      **** /*******************************************************************************
 397:isr_HA.c      **** * Function Name: isr_HA_ClearPending
 398:isr_HA.c      **** ********************************************************************************
 399:isr_HA.c      **** *
 400:isr_HA.c      **** * Summary:
 401:isr_HA.c      **** *   Clears a pending interrupt in the interrupt controller.
 402:isr_HA.c      **** *
 403:isr_HA.c      **** *   Note Some interrupt sources are clear-on-read and require the block 
 404:isr_HA.c      **** *   interrupt/status register to be read/cleared with the appropriate block API 
 405:isr_HA.c      **** *   (GPIO, UART, and so on). Otherwise the ISR will continue to remain in 
 406:isr_HA.c      **** *   pending state even though the interrupt itself is cleared using this API.
 407:isr_HA.c      **** *
 408:isr_HA.c      **** * Parameters:
 409:isr_HA.c      **** *   None
 410:isr_HA.c      **** *
 411:isr_HA.c      **** * Return:
 412:isr_HA.c      **** *   None
 413:isr_HA.c      **** *
 414:isr_HA.c      **** *******************************************************************************/
 415:isr_HA.c      **** void isr_HA_ClearPending(void)
 416:isr_HA.c      **** {
 396              		.loc 1 416 0
 397              		.cfi_startproc
 398              		@ args = 0, pretend = 0, frame = 0
 399              		@ frame_needed = 0, uses_anonymous_args = 0
 400              		@ link register save eliminated.
 417:isr_HA.c      ****     *isr_HA_INTC_CLR_PD = isr_HA__INTC_MASK;
 401              		.loc 1 417 0
 402 0000 4FF48062 		mov	r2, #1024
 403 0004 014B     		ldr	r3, .L42
 404 0006 1A60     		str	r2, [r3]
 405 0008 7047     		bx	lr
 406              	.L43:
 407 000a 00BF     		.align	2
 408              	.L42:
 409 000c 80E200E0 		.word	-536812928
 410              		.cfi_endproc
 411              	.LFE12:
 412              		.size	isr_HA_ClearPending, .-isr_HA_ClearPending
 413              		.comm	aux,2,2
 414              		.comm	last_count,2,2
 415              		.comm	rotor_direction,1,1
 416              		.comm	ma,4,4
 417              		.comm	ca,4,4
 418              		.comm	t_ha,4,4
 419              		.text
 420              	.Letext0:
 421              		.file 2 "c:\\program files (x86)\\cypress\\psoc creator\\4.1\\psoc creator\\import\\gnu\\arm\\5.4.
 422              		.file 3 "c:\\program files (x86)\\cypress\\psoc creator\\4.1\\psoc creator\\import\\gnu\\arm\\5.4.
 423              		.file 4 "Generated_Source\\PSoC5/cytypes.h"
 424              		.file 5 "Generated_Source\\PSoC5/Timer_ha.h"