ARM GAS  C:\Users\growo\AppData\Local\Temp\ccggbs5I.s 			page 1


   1              		.syntax unified
   2              		.cpu cortex-m3
   3              		.fpu softvfp
   4              		.eabi_attribute 20, 1
   5              		.eabi_attribute 21, 1
   6              		.eabi_attribute 23, 3
   7              		.eabi_attribute 24, 1
   8              		.eabi_attribute 25, 1
   9              		.eabi_attribute 26, 1
  10              		.eabi_attribute 30, 1
  11              		.eabi_attribute 34, 1
  12              		.eabi_attribute 18, 4
  13              		.thumb
  14              		.syntax unified
  15              		.file	"isr_button.c"
  16              		.text
  17              	.Ltext0:
  18              		.cfi_sections	.debug_frame
  19              		.section	.text.isr_button_Interrupt,"ax",%progbits
  20              		.align	2
  21              		.global	isr_button_Interrupt
  22              		.thumb
  23              		.thumb_func
  24              		.type	isr_button_Interrupt, %function
  25              	isr_button_Interrupt:
  26              	.LFB3:
  27              		.file 1 "isr_button.c"
   1:isr_button.c  **** /*******************************************************************************
   2:isr_button.c  **** * File Name: isr_button.c  
   3:isr_button.c  **** * Version 1.70
   4:isr_button.c  **** *
   5:isr_button.c  **** *  Description:
   6:isr_button.c  **** *   API for controlling the state of an interrupt.
   7:isr_button.c  **** *
   8:isr_button.c  **** *
   9:isr_button.c  **** *  Note:
  10:isr_button.c  **** *
  11:isr_button.c  **** ********************************************************************************
  12:isr_button.c  **** * Copyright 2008-2015, Cypress Semiconductor Corporation.  All rights reserved.
  13:isr_button.c  **** * You may use this file only in accordance with the license, terms, conditions, 
  14:isr_button.c  **** * disclaimers, and limitations in the end user license agreement accompanying 
  15:isr_button.c  **** * the software package with which this file was provided.
  16:isr_button.c  **** *******************************************************************************/
  17:isr_button.c  **** 
  18:isr_button.c  **** 
  19:isr_button.c  **** #include <cydevice_trm.h>
  20:isr_button.c  **** #include <CyLib.h>
  21:isr_button.c  **** #include <isr_button.h>
  22:isr_button.c  **** #include "cyapicallbacks.h"
  23:isr_button.c  **** 
  24:isr_button.c  **** #if !defined(isr_button__REMOVED) /* Check for removal by optimization */
  25:isr_button.c  **** 
  26:isr_button.c  **** /*******************************************************************************
  27:isr_button.c  **** *  Place your includes, defines and code here 
  28:isr_button.c  **** ********************************************************************************/
  29:isr_button.c  **** /* `#START isr_button_intc` */
  30:isr_button.c  **** #include <button_PIN.h>
ARM GAS  C:\Users\growo\AppData\Local\Temp\ccggbs5I.s 			page 2


  31:isr_button.c  **** #include <led_PIN.h>
  32:isr_button.c  **** 
  33:isr_button.c  **** volatile uint8 dir_state=0;
  34:isr_button.c  ****     
  35:isr_button.c  **** /* `#END` */
  36:isr_button.c  **** 
  37:isr_button.c  **** #ifndef CYINT_IRQ_BASE
  38:isr_button.c  **** #define CYINT_IRQ_BASE      16
  39:isr_button.c  **** #endif /* CYINT_IRQ_BASE */
  40:isr_button.c  **** #ifndef CYINT_VECT_TABLE
  41:isr_button.c  **** #define CYINT_VECT_TABLE    ((cyisraddress **) CYREG_NVIC_VECT_OFFSET)
  42:isr_button.c  **** #endif /* CYINT_VECT_TABLE */
  43:isr_button.c  **** 
  44:isr_button.c  **** /* Declared in startup, used to set unused interrupts to. */
  45:isr_button.c  **** CY_ISR_PROTO(IntDefaultHandler);
  46:isr_button.c  **** 
  47:isr_button.c  **** 
  48:isr_button.c  **** /*******************************************************************************
  49:isr_button.c  **** * Function Name: isr_button_Start
  50:isr_button.c  **** ********************************************************************************
  51:isr_button.c  **** *
  52:isr_button.c  **** * Summary:
  53:isr_button.c  **** *  Set up the interrupt and enable it. This function disables the interrupt, 
  54:isr_button.c  **** *  sets the default interrupt vector, sets the priority from the value in the
  55:isr_button.c  **** *  Design Wide Resources Interrupt Editor, then enables the interrupt to the 
  56:isr_button.c  **** *  interrupt controller.
  57:isr_button.c  **** *
  58:isr_button.c  **** * Parameters:  
  59:isr_button.c  **** *   None
  60:isr_button.c  **** *
  61:isr_button.c  **** * Return:
  62:isr_button.c  **** *   None
  63:isr_button.c  **** *
  64:isr_button.c  **** *******************************************************************************/
  65:isr_button.c  **** void isr_button_Start(void)
  66:isr_button.c  **** {
  67:isr_button.c  ****     /* For all we know the interrupt is active. */
  68:isr_button.c  ****     isr_button_Disable();
  69:isr_button.c  **** 
  70:isr_button.c  ****     /* Set the ISR to point to the isr_button Interrupt. */
  71:isr_button.c  ****     isr_button_SetVector(&isr_button_Interrupt);
  72:isr_button.c  **** 
  73:isr_button.c  ****     /* Set the priority. */
  74:isr_button.c  ****     isr_button_SetPriority((uint8)isr_button_INTC_PRIOR_NUMBER);
  75:isr_button.c  **** 
  76:isr_button.c  ****     /* Enable it. */
  77:isr_button.c  ****     isr_button_Enable();
  78:isr_button.c  **** }
  79:isr_button.c  **** 
  80:isr_button.c  **** 
  81:isr_button.c  **** /*******************************************************************************
  82:isr_button.c  **** * Function Name: isr_button_StartEx
  83:isr_button.c  **** ********************************************************************************
  84:isr_button.c  **** *
  85:isr_button.c  **** * Summary:
  86:isr_button.c  **** *  Sets up the interrupt and enables it. This function disables the interrupt,
  87:isr_button.c  **** *  sets the interrupt vector based on the address passed in, sets the priority 
ARM GAS  C:\Users\growo\AppData\Local\Temp\ccggbs5I.s 			page 3


  88:isr_button.c  **** *  from the value in the Design Wide Resources Interrupt Editor, then enables 
  89:isr_button.c  **** *  the interrupt to the interrupt controller.
  90:isr_button.c  **** *  
  91:isr_button.c  **** *  When defining ISR functions, the CY_ISR and CY_ISR_PROTO macros should be 
  92:isr_button.c  **** *  used to provide consistent definition across compilers:
  93:isr_button.c  **** *  
  94:isr_button.c  **** *  Function definition example:
  95:isr_button.c  **** *   CY_ISR(MyISR)
  96:isr_button.c  **** *   {
  97:isr_button.c  **** *   }
  98:isr_button.c  **** *   Function prototype example:
  99:isr_button.c  **** *   CY_ISR_PROTO(MyISR);
 100:isr_button.c  **** *
 101:isr_button.c  **** * Parameters:  
 102:isr_button.c  **** *   address: Address of the ISR to set in the interrupt vector table.
 103:isr_button.c  **** *
 104:isr_button.c  **** * Return:
 105:isr_button.c  **** *   None
 106:isr_button.c  **** *
 107:isr_button.c  **** *******************************************************************************/
 108:isr_button.c  **** void isr_button_StartEx(cyisraddress address)
 109:isr_button.c  **** {
 110:isr_button.c  ****     /* For all we know the interrupt is active. */
 111:isr_button.c  ****     isr_button_Disable();
 112:isr_button.c  **** 
 113:isr_button.c  ****     /* Set the ISR to point to the isr_button Interrupt. */
 114:isr_button.c  ****     isr_button_SetVector(address);
 115:isr_button.c  **** 
 116:isr_button.c  ****     /* Set the priority. */
 117:isr_button.c  ****     isr_button_SetPriority((uint8)isr_button_INTC_PRIOR_NUMBER);
 118:isr_button.c  **** 
 119:isr_button.c  ****     /* Enable it. */
 120:isr_button.c  ****     isr_button_Enable();
 121:isr_button.c  **** }
 122:isr_button.c  **** 
 123:isr_button.c  **** 
 124:isr_button.c  **** /*******************************************************************************
 125:isr_button.c  **** * Function Name: isr_button_Stop
 126:isr_button.c  **** ********************************************************************************
 127:isr_button.c  **** *
 128:isr_button.c  **** * Summary:
 129:isr_button.c  **** *   Disables and removes the interrupt.
 130:isr_button.c  **** *
 131:isr_button.c  **** * Parameters:  
 132:isr_button.c  **** *   None
 133:isr_button.c  **** *
 134:isr_button.c  **** * Return:
 135:isr_button.c  **** *   None
 136:isr_button.c  **** *
 137:isr_button.c  **** *******************************************************************************/
 138:isr_button.c  **** void isr_button_Stop(void)
 139:isr_button.c  **** {
 140:isr_button.c  ****     /* Disable this interrupt. */
 141:isr_button.c  ****     isr_button_Disable();
 142:isr_button.c  **** 
 143:isr_button.c  ****     /* Set the ISR to point to the passive one. */
 144:isr_button.c  ****     isr_button_SetVector(&IntDefaultHandler);
ARM GAS  C:\Users\growo\AppData\Local\Temp\ccggbs5I.s 			page 4


 145:isr_button.c  **** }
 146:isr_button.c  **** 
 147:isr_button.c  **** 
 148:isr_button.c  **** /*******************************************************************************
 149:isr_button.c  **** * Function Name: isr_button_Interrupt
 150:isr_button.c  **** ********************************************************************************
 151:isr_button.c  **** *
 152:isr_button.c  **** * Summary:
 153:isr_button.c  **** *   The default Interrupt Service Routine for isr_button.
 154:isr_button.c  **** *
 155:isr_button.c  **** *   Add custom code between the coments to keep the next version of this file
 156:isr_button.c  **** *   from over writting your code.
 157:isr_button.c  **** *
 158:isr_button.c  **** * Parameters:  
 159:isr_button.c  **** *
 160:isr_button.c  **** * Return:
 161:isr_button.c  **** *   None
 162:isr_button.c  **** *
 163:isr_button.c  **** *******************************************************************************/
 164:isr_button.c  **** CY_ISR(isr_button_Interrupt)
 165:isr_button.c  **** {
  28              		.loc 1 165 0
  29              		.cfi_startproc
  30              		@ args = 0, pretend = 0, frame = 0
  31              		@ frame_needed = 0, uses_anonymous_args = 0
  32 0000 08B5     		push	{r3, lr}
  33              		.cfi_def_cfa_offset 8
  34              		.cfi_offset 3, -8
  35              		.cfi_offset 14, -4
 166:isr_button.c  ****     #ifdef isr_button_INTERRUPT_INTERRUPT_CALLBACK
 167:isr_button.c  ****         isr_button_Interrupt_InterruptCallback();
 168:isr_button.c  ****     #endif /* isr_button_INTERRUPT_INTERRUPT_CALLBACK */ 
 169:isr_button.c  **** 
 170:isr_button.c  ****     /*  Place your Interrupt code here. */
 171:isr_button.c  ****     /* `#START isr_button_Interrupt` */
 172:isr_button.c  ****     uint8 ledPinState = led_PIN_Read();
  36              		.loc 1 172 0
  37 0002 FFF7FEFF 		bl	led_PIN_Read
  38              	.LVL0:
 173:isr_button.c  ****         
 174:isr_button.c  ****     dir_state = ~ dir_state;
  39              		.loc 1 174 0
  40 0006 064A     		ldr	r2, .L3
  41 0008 1378     		ldrb	r3, [r2]	@ zero_extendqisi2
  42 000a DB43     		mvns	r3, r3
  43 000c DBB2     		uxtb	r3, r3
  44 000e 1370     		strb	r3, [r2]
 175:isr_button.c  ****     led_PIN_Write(~ ledPinState );
  45              		.loc 1 175 0
  46 0010 C043     		mvns	r0, r0
  47              	.LVL1:
  48 0012 C0B2     		uxtb	r0, r0
  49 0014 FFF7FEFF 		bl	led_PIN_Write
  50              	.LVL2:
 176:isr_button.c  ****     button_PIN_ClearInterrupt();
  51              		.loc 1 176 0
  52 0018 FFF7FEFF 		bl	button_PIN_ClearInterrupt
ARM GAS  C:\Users\growo\AppData\Local\Temp\ccggbs5I.s 			page 5


  53              	.LVL3:
  54 001c 08BD     		pop	{r3, pc}
  55              	.L4:
  56 001e 00BF     		.align	2
  57              	.L3:
  58 0020 00000000 		.word	.LANCHOR0
  59              		.cfi_endproc
  60              	.LFE3:
  61              		.size	isr_button_Interrupt, .-isr_button_Interrupt
  62              		.section	.text.isr_button_SetVector,"ax",%progbits
  63              		.align	2
  64              		.global	isr_button_SetVector
  65              		.thumb
  66              		.thumb_func
  67              		.type	isr_button_SetVector, %function
  68              	isr_button_SetVector:
  69              	.LFB4:
 177:isr_button.c  ****     
 178:isr_button.c  ****     /* `#END` */
 179:isr_button.c  **** }
 180:isr_button.c  **** 
 181:isr_button.c  **** 
 182:isr_button.c  **** /*******************************************************************************
 183:isr_button.c  **** * Function Name: isr_button_SetVector
 184:isr_button.c  **** ********************************************************************************
 185:isr_button.c  **** *
 186:isr_button.c  **** * Summary:
 187:isr_button.c  **** *   Change the ISR vector for the Interrupt. Note calling isr_button_Start
 188:isr_button.c  **** *   will override any effect this method would have had. To set the vector 
 189:isr_button.c  **** *   before the component has been started use isr_button_StartEx instead.
 190:isr_button.c  **** * 
 191:isr_button.c  **** *   When defining ISR functions, the CY_ISR and CY_ISR_PROTO macros should be 
 192:isr_button.c  **** *   used to provide consistent definition across compilers:
 193:isr_button.c  **** *
 194:isr_button.c  **** *   Function definition example:
 195:isr_button.c  **** *   CY_ISR(MyISR)
 196:isr_button.c  **** *   {
 197:isr_button.c  **** *   }
 198:isr_button.c  **** *
 199:isr_button.c  **** *   Function prototype example:
 200:isr_button.c  **** *     CY_ISR_PROTO(MyISR);
 201:isr_button.c  **** *
 202:isr_button.c  **** * Parameters:
 203:isr_button.c  **** *   address: Address of the ISR to set in the interrupt vector table.
 204:isr_button.c  **** *
 205:isr_button.c  **** * Return:
 206:isr_button.c  **** *   None
 207:isr_button.c  **** *
 208:isr_button.c  **** *******************************************************************************/
 209:isr_button.c  **** void isr_button_SetVector(cyisraddress address)
 210:isr_button.c  **** {
  70              		.loc 1 210 0
  71              		.cfi_startproc
  72              		@ args = 0, pretend = 0, frame = 0
  73              		@ frame_needed = 0, uses_anonymous_args = 0
  74              		@ link register save eliminated.
  75              	.LVL4:
ARM GAS  C:\Users\growo\AppData\Local\Temp\ccggbs5I.s 			page 6


 211:isr_button.c  ****     cyisraddress * ramVectorTable;
 212:isr_button.c  **** 
 213:isr_button.c  ****     ramVectorTable = (cyisraddress *) *CYINT_VECT_TABLE;
  76              		.loc 1 213 0
  77 0000 014B     		ldr	r3, .L6
  78 0002 1B68     		ldr	r3, [r3]
  79              	.LVL5:
 214:isr_button.c  **** 
 215:isr_button.c  ****     ramVectorTable[CYINT_IRQ_BASE + (uint32)isr_button__INTC_NUMBER] = address;
  80              		.loc 1 215 0
  81 0004 9865     		str	r0, [r3, #88]
  82 0006 7047     		bx	lr
  83              	.L7:
  84              		.align	2
  85              	.L6:
  86 0008 08ED00E0 		.word	-536810232
  87              		.cfi_endproc
  88              	.LFE4:
  89              		.size	isr_button_SetVector, .-isr_button_SetVector
  90              		.section	.text.isr_button_GetVector,"ax",%progbits
  91              		.align	2
  92              		.global	isr_button_GetVector
  93              		.thumb
  94              		.thumb_func
  95              		.type	isr_button_GetVector, %function
  96              	isr_button_GetVector:
  97              	.LFB5:
 216:isr_button.c  **** }
 217:isr_button.c  **** 
 218:isr_button.c  **** 
 219:isr_button.c  **** /*******************************************************************************
 220:isr_button.c  **** * Function Name: isr_button_GetVector
 221:isr_button.c  **** ********************************************************************************
 222:isr_button.c  **** *
 223:isr_button.c  **** * Summary:
 224:isr_button.c  **** *   Gets the "address" of the current ISR vector for the Interrupt.
 225:isr_button.c  **** *
 226:isr_button.c  **** * Parameters:
 227:isr_button.c  **** *   None
 228:isr_button.c  **** *
 229:isr_button.c  **** * Return:
 230:isr_button.c  **** *   Address of the ISR in the interrupt vector table.
 231:isr_button.c  **** *
 232:isr_button.c  **** *******************************************************************************/
 233:isr_button.c  **** cyisraddress isr_button_GetVector(void)
 234:isr_button.c  **** {
  98              		.loc 1 234 0
  99              		.cfi_startproc
 100              		@ args = 0, pretend = 0, frame = 0
 101              		@ frame_needed = 0, uses_anonymous_args = 0
 102              		@ link register save eliminated.
 235:isr_button.c  ****     cyisraddress * ramVectorTable;
 236:isr_button.c  **** 
 237:isr_button.c  ****     ramVectorTable = (cyisraddress *) *CYINT_VECT_TABLE;
 103              		.loc 1 237 0
 104 0000 014B     		ldr	r3, .L9
 105 0002 1B68     		ldr	r3, [r3]
ARM GAS  C:\Users\growo\AppData\Local\Temp\ccggbs5I.s 			page 7


 106              	.LVL6:
 238:isr_button.c  **** 
 239:isr_button.c  ****     return ramVectorTable[CYINT_IRQ_BASE + (uint32)isr_button__INTC_NUMBER];
 240:isr_button.c  **** }
 107              		.loc 1 240 0
 108 0004 986D     		ldr	r0, [r3, #88]
 109 0006 7047     		bx	lr
 110              	.L10:
 111              		.align	2
 112              	.L9:
 113 0008 08ED00E0 		.word	-536810232
 114              		.cfi_endproc
 115              	.LFE5:
 116              		.size	isr_button_GetVector, .-isr_button_GetVector
 117              		.section	.text.isr_button_SetPriority,"ax",%progbits
 118              		.align	2
 119              		.global	isr_button_SetPriority
 120              		.thumb
 121              		.thumb_func
 122              		.type	isr_button_SetPriority, %function
 123              	isr_button_SetPriority:
 124              	.LFB6:
 241:isr_button.c  **** 
 242:isr_button.c  **** 
 243:isr_button.c  **** /*******************************************************************************
 244:isr_button.c  **** * Function Name: isr_button_SetPriority
 245:isr_button.c  **** ********************************************************************************
 246:isr_button.c  **** *
 247:isr_button.c  **** * Summary:
 248:isr_button.c  **** *   Sets the Priority of the Interrupt. 
 249:isr_button.c  **** *
 250:isr_button.c  **** *   Note calling isr_button_Start or isr_button_StartEx will 
 251:isr_button.c  **** *   override any effect this API would have had. This API should only be called
 252:isr_button.c  **** *   after isr_button_Start or isr_button_StartEx has been called. 
 253:isr_button.c  **** *   To set the initial priority for the component, use the Design-Wide Resources
 254:isr_button.c  **** *   Interrupt Editor.
 255:isr_button.c  **** *
 256:isr_button.c  **** *   Note This API has no effect on Non-maskable interrupt NMI).
 257:isr_button.c  **** *
 258:isr_button.c  **** * Parameters:
 259:isr_button.c  **** *   priority: Priority of the interrupt, 0 being the highest priority
 260:isr_button.c  **** *             PSoC 3 and PSoC 5LP: Priority is from 0 to 7.
 261:isr_button.c  **** *             PSoC 4: Priority is from 0 to 3.
 262:isr_button.c  **** *
 263:isr_button.c  **** * Return:
 264:isr_button.c  **** *   None
 265:isr_button.c  **** *
 266:isr_button.c  **** *******************************************************************************/
 267:isr_button.c  **** void isr_button_SetPriority(uint8 priority)
 268:isr_button.c  **** {
 125              		.loc 1 268 0
 126              		.cfi_startproc
 127              		@ args = 0, pretend = 0, frame = 0
 128              		@ frame_needed = 0, uses_anonymous_args = 0
 129              		@ link register save eliminated.
 130              	.LVL7:
 269:isr_button.c  ****     *isr_button_INTC_PRIOR = priority << 5;
ARM GAS  C:\Users\growo\AppData\Local\Temp\ccggbs5I.s 			page 8


 131              		.loc 1 269 0
 132 0000 4001     		lsls	r0, r0, #5
 133              	.LVL8:
 134 0002 C0B2     		uxtb	r0, r0
 135 0004 014B     		ldr	r3, .L12
 136 0006 1870     		strb	r0, [r3]
 137 0008 7047     		bx	lr
 138              	.L13:
 139 000a 00BF     		.align	2
 140              	.L12:
 141 000c 06E400E0 		.word	-536812538
 142              		.cfi_endproc
 143              	.LFE6:
 144              		.size	isr_button_SetPriority, .-isr_button_SetPriority
 145              		.section	.text.isr_button_GetPriority,"ax",%progbits
 146              		.align	2
 147              		.global	isr_button_GetPriority
 148              		.thumb
 149              		.thumb_func
 150              		.type	isr_button_GetPriority, %function
 151              	isr_button_GetPriority:
 152              	.LFB7:
 270:isr_button.c  **** }
 271:isr_button.c  **** 
 272:isr_button.c  **** 
 273:isr_button.c  **** /*******************************************************************************
 274:isr_button.c  **** * Function Name: isr_button_GetPriority
 275:isr_button.c  **** ********************************************************************************
 276:isr_button.c  **** *
 277:isr_button.c  **** * Summary:
 278:isr_button.c  **** *   Gets the Priority of the Interrupt.
 279:isr_button.c  **** *
 280:isr_button.c  **** * Parameters:
 281:isr_button.c  **** *   None
 282:isr_button.c  **** *
 283:isr_button.c  **** * Return:
 284:isr_button.c  **** *   Priority of the interrupt, 0 being the highest priority
 285:isr_button.c  **** *    PSoC 3 and PSoC 5LP: Priority is from 0 to 7.
 286:isr_button.c  **** *    PSoC 4: Priority is from 0 to 3.
 287:isr_button.c  **** *
 288:isr_button.c  **** *******************************************************************************/
 289:isr_button.c  **** uint8 isr_button_GetPriority(void)
 290:isr_button.c  **** {
 153              		.loc 1 290 0
 154              		.cfi_startproc
 155              		@ args = 0, pretend = 0, frame = 0
 156              		@ frame_needed = 0, uses_anonymous_args = 0
 157              		@ link register save eliminated.
 291:isr_button.c  ****     uint8 priority;
 292:isr_button.c  **** 
 293:isr_button.c  **** 
 294:isr_button.c  ****     priority = *isr_button_INTC_PRIOR >> 5;
 158              		.loc 1 294 0
 159 0000 014B     		ldr	r3, .L15
 160 0002 1878     		ldrb	r0, [r3]	@ zero_extendqisi2
 161              	.LVL9:
 295:isr_button.c  **** 
ARM GAS  C:\Users\growo\AppData\Local\Temp\ccggbs5I.s 			page 9


 296:isr_button.c  ****     return priority;
 297:isr_button.c  **** }
 162              		.loc 1 297 0
 163 0004 4009     		lsrs	r0, r0, #5
 164              	.LVL10:
 165 0006 7047     		bx	lr
 166              	.L16:
 167              		.align	2
 168              	.L15:
 169 0008 06E400E0 		.word	-536812538
 170              		.cfi_endproc
 171              	.LFE7:
 172              		.size	isr_button_GetPriority, .-isr_button_GetPriority
 173              		.section	.text.isr_button_Enable,"ax",%progbits
 174              		.align	2
 175              		.global	isr_button_Enable
 176              		.thumb
 177              		.thumb_func
 178              		.type	isr_button_Enable, %function
 179              	isr_button_Enable:
 180              	.LFB8:
 298:isr_button.c  **** 
 299:isr_button.c  **** 
 300:isr_button.c  **** /*******************************************************************************
 301:isr_button.c  **** * Function Name: isr_button_Enable
 302:isr_button.c  **** ********************************************************************************
 303:isr_button.c  **** *
 304:isr_button.c  **** * Summary:
 305:isr_button.c  **** *   Enables the interrupt to the interrupt controller. Do not call this function
 306:isr_button.c  **** *   unless ISR_Start() has been called or the functionality of the ISR_Start() 
 307:isr_button.c  **** *   function, which sets the vector and the priority, has been called.
 308:isr_button.c  **** *
 309:isr_button.c  **** * Parameters:
 310:isr_button.c  **** *   None
 311:isr_button.c  **** *
 312:isr_button.c  **** * Return:
 313:isr_button.c  **** *   None
 314:isr_button.c  **** *
 315:isr_button.c  **** *******************************************************************************/
 316:isr_button.c  **** void isr_button_Enable(void)
 317:isr_button.c  **** {
 181              		.loc 1 317 0
 182              		.cfi_startproc
 183              		@ args = 0, pretend = 0, frame = 0
 184              		@ frame_needed = 0, uses_anonymous_args = 0
 185              		@ link register save eliminated.
 318:isr_button.c  ****     /* Enable the general interrupt. */
 319:isr_button.c  ****     *isr_button_INTC_SET_EN = isr_button__INTC_MASK;
 186              		.loc 1 319 0
 187 0000 4022     		movs	r2, #64
 188 0002 014B     		ldr	r3, .L18
 189 0004 1A60     		str	r2, [r3]
 190 0006 7047     		bx	lr
 191              	.L19:
 192              		.align	2
 193              	.L18:
 194 0008 00E100E0 		.word	-536813312
ARM GAS  C:\Users\growo\AppData\Local\Temp\ccggbs5I.s 			page 10


 195              		.cfi_endproc
 196              	.LFE8:
 197              		.size	isr_button_Enable, .-isr_button_Enable
 198              		.section	.text.isr_button_GetState,"ax",%progbits
 199              		.align	2
 200              		.global	isr_button_GetState
 201              		.thumb
 202              		.thumb_func
 203              		.type	isr_button_GetState, %function
 204              	isr_button_GetState:
 205              	.LFB9:
 320:isr_button.c  **** }
 321:isr_button.c  **** 
 322:isr_button.c  **** 
 323:isr_button.c  **** /*******************************************************************************
 324:isr_button.c  **** * Function Name: isr_button_GetState
 325:isr_button.c  **** ********************************************************************************
 326:isr_button.c  **** *
 327:isr_button.c  **** * Summary:
 328:isr_button.c  **** *   Gets the state (enabled, disabled) of the Interrupt.
 329:isr_button.c  **** *
 330:isr_button.c  **** * Parameters:
 331:isr_button.c  **** *   None
 332:isr_button.c  **** *
 333:isr_button.c  **** * Return:
 334:isr_button.c  **** *   1 if enabled, 0 if disabled.
 335:isr_button.c  **** *
 336:isr_button.c  **** *******************************************************************************/
 337:isr_button.c  **** uint8 isr_button_GetState(void)
 338:isr_button.c  **** {
 206              		.loc 1 338 0
 207              		.cfi_startproc
 208              		@ args = 0, pretend = 0, frame = 0
 209              		@ frame_needed = 0, uses_anonymous_args = 0
 210              		@ link register save eliminated.
 339:isr_button.c  ****     /* Get the state of the general interrupt. */
 340:isr_button.c  ****     return ((*isr_button_INTC_SET_EN & (uint32)isr_button__INTC_MASK) != 0u) ? 1u:0u;
 211              		.loc 1 340 0
 212 0000 044B     		ldr	r3, .L23
 213 0002 1B68     		ldr	r3, [r3]
 214 0004 13F0400F 		tst	r3, #64
 215 0008 01D0     		beq	.L22
 216 000a 0120     		movs	r0, #1
 217 000c 7047     		bx	lr
 218              	.L22:
 219 000e 0020     		movs	r0, #0
 341:isr_button.c  **** }
 220              		.loc 1 341 0
 221 0010 7047     		bx	lr
 222              	.L24:
 223 0012 00BF     		.align	2
 224              	.L23:
 225 0014 00E100E0 		.word	-536813312
 226              		.cfi_endproc
 227              	.LFE9:
 228              		.size	isr_button_GetState, .-isr_button_GetState
 229              		.section	.text.isr_button_Disable,"ax",%progbits
ARM GAS  C:\Users\growo\AppData\Local\Temp\ccggbs5I.s 			page 11


 230              		.align	2
 231              		.global	isr_button_Disable
 232              		.thumb
 233              		.thumb_func
 234              		.type	isr_button_Disable, %function
 235              	isr_button_Disable:
 236              	.LFB10:
 342:isr_button.c  **** 
 343:isr_button.c  **** 
 344:isr_button.c  **** /*******************************************************************************
 345:isr_button.c  **** * Function Name: isr_button_Disable
 346:isr_button.c  **** ********************************************************************************
 347:isr_button.c  **** *
 348:isr_button.c  **** * Summary:
 349:isr_button.c  **** *   Disables the Interrupt in the interrupt controller.
 350:isr_button.c  **** *
 351:isr_button.c  **** * Parameters:
 352:isr_button.c  **** *   None
 353:isr_button.c  **** *
 354:isr_button.c  **** * Return:
 355:isr_button.c  **** *   None
 356:isr_button.c  **** *
 357:isr_button.c  **** *******************************************************************************/
 358:isr_button.c  **** void isr_button_Disable(void)
 359:isr_button.c  **** {
 237              		.loc 1 359 0
 238              		.cfi_startproc
 239              		@ args = 0, pretend = 0, frame = 0
 240              		@ frame_needed = 0, uses_anonymous_args = 0
 241              		@ link register save eliminated.
 360:isr_button.c  ****     /* Disable the general interrupt. */
 361:isr_button.c  ****     *isr_button_INTC_CLR_EN = isr_button__INTC_MASK;
 242              		.loc 1 361 0
 243 0000 4022     		movs	r2, #64
 244 0002 014B     		ldr	r3, .L26
 245 0004 1A60     		str	r2, [r3]
 246 0006 7047     		bx	lr
 247              	.L27:
 248              		.align	2
 249              	.L26:
 250 0008 80E100E0 		.word	-536813184
 251              		.cfi_endproc
 252              	.LFE10:
 253              		.size	isr_button_Disable, .-isr_button_Disable
 254              		.section	.text.isr_button_Start,"ax",%progbits
 255              		.align	2
 256              		.global	isr_button_Start
 257              		.thumb
 258              		.thumb_func
 259              		.type	isr_button_Start, %function
 260              	isr_button_Start:
 261              	.LFB0:
  66:isr_button.c  ****     /* For all we know the interrupt is active. */
 262              		.loc 1 66 0
 263              		.cfi_startproc
 264              		@ args = 0, pretend = 0, frame = 0
 265              		@ frame_needed = 0, uses_anonymous_args = 0
ARM GAS  C:\Users\growo\AppData\Local\Temp\ccggbs5I.s 			page 12


 266 0000 08B5     		push	{r3, lr}
 267              		.cfi_def_cfa_offset 8
 268              		.cfi_offset 3, -8
 269              		.cfi_offset 14, -4
  68:isr_button.c  **** 
 270              		.loc 1 68 0
 271 0002 FFF7FEFF 		bl	isr_button_Disable
 272              	.LVL11:
  71:isr_button.c  **** 
 273              		.loc 1 71 0
 274 0006 0448     		ldr	r0, .L30
 275 0008 FFF7FEFF 		bl	isr_button_SetVector
 276              	.LVL12:
  74:isr_button.c  **** 
 277              		.loc 1 74 0
 278 000c 0720     		movs	r0, #7
 279 000e FFF7FEFF 		bl	isr_button_SetPriority
 280              	.LVL13:
  77:isr_button.c  **** }
 281              		.loc 1 77 0
 282 0012 FFF7FEFF 		bl	isr_button_Enable
 283              	.LVL14:
 284 0016 08BD     		pop	{r3, pc}
 285              	.L31:
 286              		.align	2
 287              	.L30:
 288 0018 00000000 		.word	isr_button_Interrupt
 289              		.cfi_endproc
 290              	.LFE0:
 291              		.size	isr_button_Start, .-isr_button_Start
 292              		.section	.text.isr_button_StartEx,"ax",%progbits
 293              		.align	2
 294              		.global	isr_button_StartEx
 295              		.thumb
 296              		.thumb_func
 297              		.type	isr_button_StartEx, %function
 298              	isr_button_StartEx:
 299              	.LFB1:
 109:isr_button.c  ****     /* For all we know the interrupt is active. */
 300              		.loc 1 109 0
 301              		.cfi_startproc
 302              		@ args = 0, pretend = 0, frame = 0
 303              		@ frame_needed = 0, uses_anonymous_args = 0
 304              	.LVL15:
 305 0000 10B5     		push	{r4, lr}
 306              		.cfi_def_cfa_offset 8
 307              		.cfi_offset 4, -8
 308              		.cfi_offset 14, -4
 309 0002 0446     		mov	r4, r0
 111:isr_button.c  **** 
 310              		.loc 1 111 0
 311 0004 FFF7FEFF 		bl	isr_button_Disable
 312              	.LVL16:
 114:isr_button.c  **** 
 313              		.loc 1 114 0
 314 0008 2046     		mov	r0, r4
 315 000a FFF7FEFF 		bl	isr_button_SetVector
ARM GAS  C:\Users\growo\AppData\Local\Temp\ccggbs5I.s 			page 13


 316              	.LVL17:
 117:isr_button.c  **** 
 317              		.loc 1 117 0
 318 000e 0720     		movs	r0, #7
 319 0010 FFF7FEFF 		bl	isr_button_SetPriority
 320              	.LVL18:
 120:isr_button.c  **** }
 321              		.loc 1 120 0
 322 0014 FFF7FEFF 		bl	isr_button_Enable
 323              	.LVL19:
 324 0018 10BD     		pop	{r4, pc}
 325              		.cfi_endproc
 326              	.LFE1:
 327              		.size	isr_button_StartEx, .-isr_button_StartEx
 328 001a 00BF     		.section	.text.isr_button_Stop,"ax",%progbits
 329              		.align	2
 330              		.global	isr_button_Stop
 331              		.thumb
 332              		.thumb_func
 333              		.type	isr_button_Stop, %function
 334              	isr_button_Stop:
 335              	.LFB2:
 139:isr_button.c  ****     /* Disable this interrupt. */
 336              		.loc 1 139 0
 337              		.cfi_startproc
 338              		@ args = 0, pretend = 0, frame = 0
 339              		@ frame_needed = 0, uses_anonymous_args = 0
 340 0000 08B5     		push	{r3, lr}
 341              		.cfi_def_cfa_offset 8
 342              		.cfi_offset 3, -8
 343              		.cfi_offset 14, -4
 141:isr_button.c  **** 
 344              		.loc 1 141 0
 345 0002 FFF7FEFF 		bl	isr_button_Disable
 346              	.LVL20:
 144:isr_button.c  **** }
 347              		.loc 1 144 0
 348 0006 0248     		ldr	r0, .L36
 349 0008 FFF7FEFF 		bl	isr_button_SetVector
 350              	.LVL21:
 351 000c 08BD     		pop	{r3, pc}
 352              	.L37:
 353 000e 00BF     		.align	2
 354              	.L36:
 355 0010 00000000 		.word	IntDefaultHandler
 356              		.cfi_endproc
 357              	.LFE2:
 358              		.size	isr_button_Stop, .-isr_button_Stop
 359              		.section	.text.isr_button_SetPending,"ax",%progbits
 360              		.align	2
 361              		.global	isr_button_SetPending
 362              		.thumb
 363              		.thumb_func
 364              		.type	isr_button_SetPending, %function
 365              	isr_button_SetPending:
 366              	.LFB11:
 362:isr_button.c  **** }
ARM GAS  C:\Users\growo\AppData\Local\Temp\ccggbs5I.s 			page 14


 363:isr_button.c  **** 
 364:isr_button.c  **** 
 365:isr_button.c  **** /*******************************************************************************
 366:isr_button.c  **** * Function Name: isr_button_SetPending
 367:isr_button.c  **** ********************************************************************************
 368:isr_button.c  **** *
 369:isr_button.c  **** * Summary:
 370:isr_button.c  **** *   Causes the Interrupt to enter the pending state, a software method of
 371:isr_button.c  **** *   generating the interrupt.
 372:isr_button.c  **** *
 373:isr_button.c  **** * Parameters:
 374:isr_button.c  **** *   None
 375:isr_button.c  **** *
 376:isr_button.c  **** * Return:
 377:isr_button.c  **** *   None
 378:isr_button.c  **** *
 379:isr_button.c  **** * Side Effects:
 380:isr_button.c  **** *   If interrupts are enabled and the interrupt is set up properly, the ISR is
 381:isr_button.c  **** *   entered (depending on the priority of this interrupt and other pending 
 382:isr_button.c  **** *   interrupts).
 383:isr_button.c  **** *
 384:isr_button.c  **** *******************************************************************************/
 385:isr_button.c  **** void isr_button_SetPending(void)
 386:isr_button.c  **** {
 367              		.loc 1 386 0
 368              		.cfi_startproc
 369              		@ args = 0, pretend = 0, frame = 0
 370              		@ frame_needed = 0, uses_anonymous_args = 0
 371              		@ link register save eliminated.
 387:isr_button.c  ****     *isr_button_INTC_SET_PD = isr_button__INTC_MASK;
 372              		.loc 1 387 0
 373 0000 4022     		movs	r2, #64
 374 0002 014B     		ldr	r3, .L39
 375 0004 1A60     		str	r2, [r3]
 376 0006 7047     		bx	lr
 377              	.L40:
 378              		.align	2
 379              	.L39:
 380 0008 00E200E0 		.word	-536813056
 381              		.cfi_endproc
 382              	.LFE11:
 383              		.size	isr_button_SetPending, .-isr_button_SetPending
 384              		.section	.text.isr_button_ClearPending,"ax",%progbits
 385              		.align	2
 386              		.global	isr_button_ClearPending
 387              		.thumb
 388              		.thumb_func
 389              		.type	isr_button_ClearPending, %function
 390              	isr_button_ClearPending:
 391              	.LFB12:
 388:isr_button.c  **** }
 389:isr_button.c  **** 
 390:isr_button.c  **** 
 391:isr_button.c  **** /*******************************************************************************
 392:isr_button.c  **** * Function Name: isr_button_ClearPending
 393:isr_button.c  **** ********************************************************************************
 394:isr_button.c  **** *
ARM GAS  C:\Users\growo\AppData\Local\Temp\ccggbs5I.s 			page 15


 395:isr_button.c  **** * Summary:
 396:isr_button.c  **** *   Clears a pending interrupt in the interrupt controller.
 397:isr_button.c  **** *
 398:isr_button.c  **** *   Note Some interrupt sources are clear-on-read and require the block 
 399:isr_button.c  **** *   interrupt/status register to be read/cleared with the appropriate block API 
 400:isr_button.c  **** *   (GPIO, UART, and so on). Otherwise the ISR will continue to remain in 
 401:isr_button.c  **** *   pending state even though the interrupt itself is cleared using this API.
 402:isr_button.c  **** *
 403:isr_button.c  **** * Parameters:
 404:isr_button.c  **** *   None
 405:isr_button.c  **** *
 406:isr_button.c  **** * Return:
 407:isr_button.c  **** *   None
 408:isr_button.c  **** *
 409:isr_button.c  **** *******************************************************************************/
 410:isr_button.c  **** void isr_button_ClearPending(void)
 411:isr_button.c  **** {
 392              		.loc 1 411 0
 393              		.cfi_startproc
 394              		@ args = 0, pretend = 0, frame = 0
 395              		@ frame_needed = 0, uses_anonymous_args = 0
 396              		@ link register save eliminated.
 412:isr_button.c  ****     *isr_button_INTC_CLR_PD = isr_button__INTC_MASK;
 397              		.loc 1 412 0
 398 0000 4022     		movs	r2, #64
 399 0002 014B     		ldr	r3, .L42
 400 0004 1A60     		str	r2, [r3]
 401 0006 7047     		bx	lr
 402              	.L43:
 403              		.align	2
 404              	.L42:
 405 0008 80E200E0 		.word	-536812928
 406              		.cfi_endproc
 407              	.LFE12:
 408              		.size	isr_button_ClearPending, .-isr_button_ClearPending
 409              		.global	dir_state
 410              		.bss
 411              		.set	.LANCHOR0,. + 0
 412              		.type	dir_state, %object
 413              		.size	dir_state, 1
 414              	dir_state:
 415 0000 00       		.space	1
 416              		.text
 417              	.Letext0:
 418              		.file 2 "Generated_Source\\PSoC5/cytypes.h"
 419              		.file 3 "Generated_Source\\PSoC5/led_PIN.h"
 420              		.file 4 "Generated_Source\\PSoC5/button_PIN.h"