ARM GAS  C:\Users\growo\AppData\Local\Temp\ccpMiofE.s 			page 1


   1              		.syntax unified
   2              		.cpu cortex-m3
   3              		.fpu softvfp
   4              		.eabi_attribute 20, 1
   5              		.eabi_attribute 21, 1
   6              		.eabi_attribute 23, 3
   7              		.eabi_attribute 24, 1
   8              		.eabi_attribute 25, 1
   9              		.eabi_attribute 26, 1
  10              		.eabi_attribute 30, 1
  11              		.eabi_attribute 34, 1
  12              		.eabi_attribute 18, 4
  13              		.thumb
  14              		.syntax unified
  15              		.file	"isr_counter.c"
  16              		.text
  17              	.Ltext0:
  18              		.cfi_sections	.debug_frame
  19              		.section	.text.isr_counter_Interrupt,"ax",%progbits
  20              		.align	2
  21              		.global	isr_counter_Interrupt
  22              		.thumb
  23              		.thumb_func
  24              		.type	isr_counter_Interrupt, %function
  25              	isr_counter_Interrupt:
  26              	.LFB67:
  27              		.file 1 "isr_counter.c"
   1:isr_counter.c **** /*******************************************************************************
   2:isr_counter.c **** * File Name: isr_counter.c  
   3:isr_counter.c **** * Version 1.70
   4:isr_counter.c **** *
   5:isr_counter.c **** *  Description:
   6:isr_counter.c **** *   API for controlling the state of an interrupt.
   7:isr_counter.c **** *
   8:isr_counter.c **** *
   9:isr_counter.c **** *  Note:
  10:isr_counter.c **** *
  11:isr_counter.c **** ********************************************************************************
  12:isr_counter.c **** * Copyright 2008-2015, Cypress Semiconductor Corporation.  All rights reserved.
  13:isr_counter.c **** * You may use this file only in accordance with the license, terms, conditions, 
  14:isr_counter.c **** * disclaimers, and limitations in the end user license agreement accompanying 
  15:isr_counter.c **** * the software package with which this file was provided.
  16:isr_counter.c **** *******************************************************************************/
  17:isr_counter.c **** 
  18:isr_counter.c **** 
  19:isr_counter.c **** #include <cydevice_trm.h>
  20:isr_counter.c **** #include <CyLib.h>
  21:isr_counter.c **** #include <isr_counter.h>
  22:isr_counter.c **** #include "cyapicallbacks.h"
  23:isr_counter.c **** 
  24:isr_counter.c **** #if !defined(isr_counter__REMOVED) /* Check for removal by optimization */
  25:isr_counter.c **** 
  26:isr_counter.c **** /*******************************************************************************
  27:isr_counter.c **** *  Place your includes, defines and code here 
  28:isr_counter.c **** ********************************************************************************/
  29:isr_counter.c **** /* `#START isr_counter_intc` */
  30:isr_counter.c **** 
ARM GAS  C:\Users\growo\AppData\Local\Temp\ccpMiofE.s 			page 2


  31:isr_counter.c **** #include "global.h"
  32:isr_counter.c **** #include <DirCounter.h>
  33:isr_counter.c **** 
  34:isr_counter.c **** int32_t counter;
  35:isr_counter.c **** int16 last_count, aux;
  36:isr_counter.c **** volatile int8 rotor_direction;
  37:isr_counter.c **** volatile int32_t t_ha;
  38:isr_counter.c ****     
  39:isr_counter.c **** /* `#END` */
  40:isr_counter.c **** 
  41:isr_counter.c **** #ifndef CYINT_IRQ_BASE
  42:isr_counter.c **** #define CYINT_IRQ_BASE      16
  43:isr_counter.c **** #endif /* CYINT_IRQ_BASE */
  44:isr_counter.c **** #ifndef CYINT_VECT_TABLE
  45:isr_counter.c **** #define CYINT_VECT_TABLE    ((cyisraddress **) CYREG_NVIC_VECT_OFFSET)
  46:isr_counter.c **** #endif /* CYINT_VECT_TABLE */
  47:isr_counter.c **** 
  48:isr_counter.c **** /* Declared in startup, used to set unused interrupts to. */
  49:isr_counter.c **** CY_ISR_PROTO(IntDefaultHandler);
  50:isr_counter.c **** 
  51:isr_counter.c **** 
  52:isr_counter.c **** /*******************************************************************************
  53:isr_counter.c **** * Function Name: isr_counter_Start
  54:isr_counter.c **** ********************************************************************************
  55:isr_counter.c **** *
  56:isr_counter.c **** * Summary:
  57:isr_counter.c **** *  Set up the interrupt and enable it. This function disables the interrupt, 
  58:isr_counter.c **** *  sets the default interrupt vector, sets the priority from the value in the
  59:isr_counter.c **** *  Design Wide Resources Interrupt Editor, then enables the interrupt to the 
  60:isr_counter.c **** *  interrupt controller.
  61:isr_counter.c **** *
  62:isr_counter.c **** * Parameters:  
  63:isr_counter.c **** *   None
  64:isr_counter.c **** *
  65:isr_counter.c **** * Return:
  66:isr_counter.c **** *   None
  67:isr_counter.c **** *
  68:isr_counter.c **** *******************************************************************************/
  69:isr_counter.c **** void isr_counter_Start(void)
  70:isr_counter.c **** {
  71:isr_counter.c ****     /* For all we know the interrupt is active. */
  72:isr_counter.c ****     isr_counter_Disable();
  73:isr_counter.c **** 
  74:isr_counter.c ****     /* Set the ISR to point to the isr_counter Interrupt. */
  75:isr_counter.c ****     isr_counter_SetVector(&isr_counter_Interrupt);
  76:isr_counter.c **** 
  77:isr_counter.c ****     /* Set the priority. */
  78:isr_counter.c ****     isr_counter_SetPriority((uint8)isr_counter_INTC_PRIOR_NUMBER);
  79:isr_counter.c **** 
  80:isr_counter.c ****     /* Enable it. */
  81:isr_counter.c ****     isr_counter_Enable();
  82:isr_counter.c **** }
  83:isr_counter.c **** 
  84:isr_counter.c **** 
  85:isr_counter.c **** /*******************************************************************************
  86:isr_counter.c **** * Function Name: isr_counter_StartEx
  87:isr_counter.c **** ********************************************************************************
ARM GAS  C:\Users\growo\AppData\Local\Temp\ccpMiofE.s 			page 3


  88:isr_counter.c **** *
  89:isr_counter.c **** * Summary:
  90:isr_counter.c **** *  Sets up the interrupt and enables it. This function disables the interrupt,
  91:isr_counter.c **** *  sets the interrupt vector based on the address passed in, sets the priority 
  92:isr_counter.c **** *  from the value in the Design Wide Resources Interrupt Editor, then enables 
  93:isr_counter.c **** *  the interrupt to the interrupt controller.
  94:isr_counter.c **** *  
  95:isr_counter.c **** *  When defining ISR functions, the CY_ISR and CY_ISR_PROTO macros should be 
  96:isr_counter.c **** *  used to provide consistent definition across compilers:
  97:isr_counter.c **** *  
  98:isr_counter.c **** *  Function definition example:
  99:isr_counter.c **** *   CY_ISR(MyISR)
 100:isr_counter.c **** *   {
 101:isr_counter.c **** *   }
 102:isr_counter.c **** *   Function prototype example:
 103:isr_counter.c **** *   CY_ISR_PROTO(MyISR);
 104:isr_counter.c **** *
 105:isr_counter.c **** * Parameters:  
 106:isr_counter.c **** *   address: Address of the ISR to set in the interrupt vector table.
 107:isr_counter.c **** *
 108:isr_counter.c **** * Return:
 109:isr_counter.c **** *   None
 110:isr_counter.c **** *
 111:isr_counter.c **** *******************************************************************************/
 112:isr_counter.c **** void isr_counter_StartEx(cyisraddress address)
 113:isr_counter.c **** {
 114:isr_counter.c ****     /* For all we know the interrupt is active. */
 115:isr_counter.c ****     isr_counter_Disable();
 116:isr_counter.c **** 
 117:isr_counter.c ****     /* Set the ISR to point to the isr_counter Interrupt. */
 118:isr_counter.c ****     isr_counter_SetVector(address);
 119:isr_counter.c **** 
 120:isr_counter.c ****     /* Set the priority. */
 121:isr_counter.c ****     isr_counter_SetPriority((uint8)isr_counter_INTC_PRIOR_NUMBER);
 122:isr_counter.c **** 
 123:isr_counter.c ****     /* Enable it. */
 124:isr_counter.c ****     isr_counter_Enable();
 125:isr_counter.c **** }
 126:isr_counter.c **** 
 127:isr_counter.c **** 
 128:isr_counter.c **** /*******************************************************************************
 129:isr_counter.c **** * Function Name: isr_counter_Stop
 130:isr_counter.c **** ********************************************************************************
 131:isr_counter.c **** *
 132:isr_counter.c **** * Summary:
 133:isr_counter.c **** *   Disables and removes the interrupt.
 134:isr_counter.c **** *
 135:isr_counter.c **** * Parameters:  
 136:isr_counter.c **** *   None
 137:isr_counter.c **** *
 138:isr_counter.c **** * Return:
 139:isr_counter.c **** *   None
 140:isr_counter.c **** *
 141:isr_counter.c **** *******************************************************************************/
 142:isr_counter.c **** void isr_counter_Stop(void)
 143:isr_counter.c **** {
 144:isr_counter.c ****     /* Disable this interrupt. */
ARM GAS  C:\Users\growo\AppData\Local\Temp\ccpMiofE.s 			page 4


 145:isr_counter.c ****     isr_counter_Disable();
 146:isr_counter.c **** 
 147:isr_counter.c ****     /* Set the ISR to point to the passive one. */
 148:isr_counter.c ****     isr_counter_SetVector(&IntDefaultHandler);
 149:isr_counter.c **** }
 150:isr_counter.c **** 
 151:isr_counter.c **** 
 152:isr_counter.c **** /*******************************************************************************
 153:isr_counter.c **** * Function Name: isr_counter_Interrupt
 154:isr_counter.c **** ********************************************************************************
 155:isr_counter.c **** *
 156:isr_counter.c **** * Summary:
 157:isr_counter.c **** *   The default Interrupt Service Routine for isr_counter.
 158:isr_counter.c **** *
 159:isr_counter.c **** *   Add custom code between the coments to keep the next version of this file
 160:isr_counter.c **** *   from over writting your code.
 161:isr_counter.c **** *
 162:isr_counter.c **** * Parameters:  
 163:isr_counter.c **** *
 164:isr_counter.c **** * Return:
 165:isr_counter.c **** *   None
 166:isr_counter.c **** *
 167:isr_counter.c **** *******************************************************************************/
 168:isr_counter.c **** CY_ISR(isr_counter_Interrupt)
 169:isr_counter.c **** {
  28              		.loc 1 169 0
  29              		.cfi_startproc
  30              		@ args = 0, pretend = 0, frame = 0
  31              		@ frame_needed = 0, uses_anonymous_args = 0
  32 0000 08B5     		push	{r3, lr}
  33              		.cfi_def_cfa_offset 8
  34              		.cfi_offset 3, -8
  35              		.cfi_offset 14, -4
 170:isr_counter.c ****     #ifdef isr_counter_INTERRUPT_INTERRUPT_CALLBACK
 171:isr_counter.c ****         isr_counter_Interrupt_InterruptCallback();
 172:isr_counter.c ****     #endif /* isr_counter_INTERRUPT_INTERRUPT_CALLBACK */ 
 173:isr_counter.c **** 
 174:isr_counter.c ****     /*  Place your Interrupt code here. */
 175:isr_counter.c ****     /* `#START isr_counter_Interrupt` */
 176:isr_counter.c ****     
 177:isr_counter.c ****     counter++;
  36              		.loc 1 177 0
  37 0002 184B     		ldr	r3, .L6
  38 0004 1968     		ldr	r1, [r3]
  39 0006 0131     		adds	r1, r1, #1
  40 0008 1960     		str	r1, [r3]
 178:isr_counter.c ****     
 179:isr_counter.c ****     if(counter%10 == 0){
  41              		.loc 1 179 0
  42 000a 174B     		ldr	r3, .L6+4
  43 000c 83FB0123 		smull	r2, r3, r3, r1
  44 0010 CA17     		asrs	r2, r1, #31
  45 0012 C2EBA303 		rsb	r3, r2, r3, asr #2
  46 0016 03EB8303 		add	r3, r3, r3, lsl #2
  47 001a 5A00     		lsls	r2, r3, #1
  48 001c 9142     		cmp	r1, r2
  49 001e 1BD1     		bne	.L2
ARM GAS  C:\Users\growo\AppData\Local\Temp\ccpMiofE.s 			page 5


 180:isr_counter.c ****         // checks if motor is rotating, if not, set velocity to zero for motion control
 181:isr_counter.c ****         aux = DirCounter_GetCounter();
  50              		.loc 1 181 0
  51 0020 FFF7FEFF 		bl	DirCounter_GetCounter
  52              	.LVL0:
  53 0024 114B     		ldr	r3, .L6+8
  54 0026 1880     		strh	r0, [r3]	@ movhi
 182:isr_counter.c ****         if ( aux - last_count > 0 )
  55              		.loc 1 182 0
  56 0028 114B     		ldr	r3, .L6+12
  57 002a B3F90020 		ldrsh	r2, [r3]
  58 002e 831A     		subs	r3, r0, r2
  59 0030 002B     		cmp	r3, #0
  60 0032 03DD     		ble	.L3
 183:isr_counter.c ****         {
 184:isr_counter.c ****             /* if > 0 its turning right (CW) */
 185:isr_counter.c ****             rotor_direction = 1;
  61              		.loc 1 185 0
  62 0034 0122     		movs	r2, #1
  63 0036 0F4B     		ldr	r3, .L6+16
  64 0038 1A70     		strb	r2, [r3]
  65 003a 0DE0     		b	.L2
  66              	.L3:
 186:isr_counter.c ****         }
 187:isr_counter.c ****         else if ( aux - last_count < 0 )
  67              		.loc 1 187 0
  68 003c 002B     		cmp	r3, #0
  69 003e 03DA     		bge	.L4
 188:isr_counter.c ****         {
 189:isr_counter.c ****             /* if < 0 its turning left (CCW) */
 190:isr_counter.c ****             rotor_direction = 0;
  70              		.loc 1 190 0
  71 0040 0022     		movs	r2, #0
  72 0042 0C4B     		ldr	r3, .L6+16
  73 0044 1A70     		strb	r2, [r3]
  74 0046 07E0     		b	.L2
  75              	.L4:
 191:isr_counter.c ****         }
 192:isr_counter.c ****         else if ( aux - last_count == 0 )
  76              		.loc 1 192 0
  77 0048 9042     		cmp	r0, r2
  78 004a 05D1     		bne	.L2
 193:isr_counter.c ****         {
 194:isr_counter.c ****             /* if = 0 its not rotating */
 195:isr_counter.c ****             rotor_direction = -1;
  79              		.loc 1 195 0
  80 004c FF22     		movs	r2, #255
  81 004e 094B     		ldr	r3, .L6+16
  82 0050 1A70     		strb	r2, [r3]
 196:isr_counter.c ****             t_ha = 0;
  83              		.loc 1 196 0
  84 0052 0022     		movs	r2, #0
  85 0054 084B     		ldr	r3, .L6+20
  86 0056 1A60     		str	r2, [r3]
  87              	.L2:
 197:isr_counter.c ****         }
 198:isr_counter.c ****     }
ARM GAS  C:\Users\growo\AppData\Local\Temp\ccpMiofE.s 			page 6


 199:isr_counter.c ****     /* update variable */
 200:isr_counter.c ****     last_count = aux; 
  88              		.loc 1 200 0
  89 0058 044B     		ldr	r3, .L6+8
  90 005a 1A88     		ldrh	r2, [r3]
  91 005c 044B     		ldr	r3, .L6+12
  92 005e 1A80     		strh	r2, [r3]	@ movhi
  93 0060 08BD     		pop	{r3, pc}
  94              	.L7:
  95 0062 00BF     		.align	2
  96              	.L6:
  97 0064 00000000 		.word	counter
  98 0068 67666666 		.word	1717986919
  99 006c 00000000 		.word	aux
 100 0070 00000000 		.word	last_count
 101 0074 00000000 		.word	rotor_direction
 102 0078 00000000 		.word	t_ha
 103              		.cfi_endproc
 104              	.LFE67:
 105              		.size	isr_counter_Interrupt, .-isr_counter_Interrupt
 106              		.section	.text.isr_counter_SetVector,"ax",%progbits
 107              		.align	2
 108              		.global	isr_counter_SetVector
 109              		.thumb
 110              		.thumb_func
 111              		.type	isr_counter_SetVector, %function
 112              	isr_counter_SetVector:
 113              	.LFB68:
 201:isr_counter.c ****     
 202:isr_counter.c **** 
 203:isr_counter.c ****     /* `#END` */
 204:isr_counter.c **** }
 205:isr_counter.c **** 
 206:isr_counter.c **** 
 207:isr_counter.c **** /*******************************************************************************
 208:isr_counter.c **** * Function Name: isr_counter_SetVector
 209:isr_counter.c **** ********************************************************************************
 210:isr_counter.c **** *
 211:isr_counter.c **** * Summary:
 212:isr_counter.c **** *   Change the ISR vector for the Interrupt. Note calling isr_counter_Start
 213:isr_counter.c **** *   will override any effect this method would have had. To set the vector 
 214:isr_counter.c **** *   before the component has been started use isr_counter_StartEx instead.
 215:isr_counter.c **** * 
 216:isr_counter.c **** *   When defining ISR functions, the CY_ISR and CY_ISR_PROTO macros should be 
 217:isr_counter.c **** *   used to provide consistent definition across compilers:
 218:isr_counter.c **** *
 219:isr_counter.c **** *   Function definition example:
 220:isr_counter.c **** *   CY_ISR(MyISR)
 221:isr_counter.c **** *   {
 222:isr_counter.c **** *   }
 223:isr_counter.c **** *
 224:isr_counter.c **** *   Function prototype example:
 225:isr_counter.c **** *     CY_ISR_PROTO(MyISR);
 226:isr_counter.c **** *
 227:isr_counter.c **** * Parameters:
 228:isr_counter.c **** *   address: Address of the ISR to set in the interrupt vector table.
 229:isr_counter.c **** *
ARM GAS  C:\Users\growo\AppData\Local\Temp\ccpMiofE.s 			page 7


 230:isr_counter.c **** * Return:
 231:isr_counter.c **** *   None
 232:isr_counter.c **** *
 233:isr_counter.c **** *******************************************************************************/
 234:isr_counter.c **** void isr_counter_SetVector(cyisraddress address)
 235:isr_counter.c **** {
 114              		.loc 1 235 0
 115              		.cfi_startproc
 116              		@ args = 0, pretend = 0, frame = 0
 117              		@ frame_needed = 0, uses_anonymous_args = 0
 118              		@ link register save eliminated.
 119              	.LVL1:
 236:isr_counter.c ****     cyisraddress * ramVectorTable;
 237:isr_counter.c **** 
 238:isr_counter.c ****     ramVectorTable = (cyisraddress *) *CYINT_VECT_TABLE;
 120              		.loc 1 238 0
 121 0000 014B     		ldr	r3, .L9
 122 0002 1B68     		ldr	r3, [r3]
 123              	.LVL2:
 239:isr_counter.c **** 
 240:isr_counter.c ****     ramVectorTable[CYINT_IRQ_BASE + (uint32)isr_counter__INTC_NUMBER] = address;
 124              		.loc 1 240 0
 125 0004 D865     		str	r0, [r3, #92]
 126 0006 7047     		bx	lr
 127              	.L10:
 128              		.align	2
 129              	.L9:
 130 0008 08ED00E0 		.word	-536810232
 131              		.cfi_endproc
 132              	.LFE68:
 133              		.size	isr_counter_SetVector, .-isr_counter_SetVector
 134              		.section	.text.isr_counter_GetVector,"ax",%progbits
 135              		.align	2
 136              		.global	isr_counter_GetVector
 137              		.thumb
 138              		.thumb_func
 139              		.type	isr_counter_GetVector, %function
 140              	isr_counter_GetVector:
 141              	.LFB69:
 241:isr_counter.c **** }
 242:isr_counter.c **** 
 243:isr_counter.c **** 
 244:isr_counter.c **** /*******************************************************************************
 245:isr_counter.c **** * Function Name: isr_counter_GetVector
 246:isr_counter.c **** ********************************************************************************
 247:isr_counter.c **** *
 248:isr_counter.c **** * Summary:
 249:isr_counter.c **** *   Gets the "address" of the current ISR vector for the Interrupt.
 250:isr_counter.c **** *
 251:isr_counter.c **** * Parameters:
 252:isr_counter.c **** *   None
 253:isr_counter.c **** *
 254:isr_counter.c **** * Return:
 255:isr_counter.c **** *   Address of the ISR in the interrupt vector table.
 256:isr_counter.c **** *
 257:isr_counter.c **** *******************************************************************************/
 258:isr_counter.c **** cyisraddress isr_counter_GetVector(void)
ARM GAS  C:\Users\growo\AppData\Local\Temp\ccpMiofE.s 			page 8


 259:isr_counter.c **** {
 142              		.loc 1 259 0
 143              		.cfi_startproc
 144              		@ args = 0, pretend = 0, frame = 0
 145              		@ frame_needed = 0, uses_anonymous_args = 0
 146              		@ link register save eliminated.
 260:isr_counter.c ****     cyisraddress * ramVectorTable;
 261:isr_counter.c **** 
 262:isr_counter.c ****     ramVectorTable = (cyisraddress *) *CYINT_VECT_TABLE;
 147              		.loc 1 262 0
 148 0000 014B     		ldr	r3, .L12
 149 0002 1B68     		ldr	r3, [r3]
 150              	.LVL3:
 263:isr_counter.c **** 
 264:isr_counter.c ****     return ramVectorTable[CYINT_IRQ_BASE + (uint32)isr_counter__INTC_NUMBER];
 265:isr_counter.c **** }
 151              		.loc 1 265 0
 152 0004 D86D     		ldr	r0, [r3, #92]
 153 0006 7047     		bx	lr
 154              	.L13:
 155              		.align	2
 156              	.L12:
 157 0008 08ED00E0 		.word	-536810232
 158              		.cfi_endproc
 159              	.LFE69:
 160              		.size	isr_counter_GetVector, .-isr_counter_GetVector
 161              		.section	.text.isr_counter_SetPriority,"ax",%progbits
 162              		.align	2
 163              		.global	isr_counter_SetPriority
 164              		.thumb
 165              		.thumb_func
 166              		.type	isr_counter_SetPriority, %function
 167              	isr_counter_SetPriority:
 168              	.LFB70:
 266:isr_counter.c **** 
 267:isr_counter.c **** 
 268:isr_counter.c **** /*******************************************************************************
 269:isr_counter.c **** * Function Name: isr_counter_SetPriority
 270:isr_counter.c **** ********************************************************************************
 271:isr_counter.c **** *
 272:isr_counter.c **** * Summary:
 273:isr_counter.c **** *   Sets the Priority of the Interrupt. 
 274:isr_counter.c **** *
 275:isr_counter.c **** *   Note calling isr_counter_Start or isr_counter_StartEx will 
 276:isr_counter.c **** *   override any effect this API would have had. This API should only be called
 277:isr_counter.c **** *   after isr_counter_Start or isr_counter_StartEx has been called. 
 278:isr_counter.c **** *   To set the initial priority for the component, use the Design-Wide Resources
 279:isr_counter.c **** *   Interrupt Editor.
 280:isr_counter.c **** *
 281:isr_counter.c **** *   Note This API has no effect on Non-maskable interrupt NMI).
 282:isr_counter.c **** *
 283:isr_counter.c **** * Parameters:
 284:isr_counter.c **** *   priority: Priority of the interrupt, 0 being the highest priority
 285:isr_counter.c **** *             PSoC 3 and PSoC 5LP: Priority is from 0 to 7.
 286:isr_counter.c **** *             PSoC 4: Priority is from 0 to 3.
 287:isr_counter.c **** *
 288:isr_counter.c **** * Return:
ARM GAS  C:\Users\growo\AppData\Local\Temp\ccpMiofE.s 			page 9


 289:isr_counter.c **** *   None
 290:isr_counter.c **** *
 291:isr_counter.c **** *******************************************************************************/
 292:isr_counter.c **** void isr_counter_SetPriority(uint8 priority)
 293:isr_counter.c **** {
 169              		.loc 1 293 0
 170              		.cfi_startproc
 171              		@ args = 0, pretend = 0, frame = 0
 172              		@ frame_needed = 0, uses_anonymous_args = 0
 173              		@ link register save eliminated.
 174              	.LVL4:
 294:isr_counter.c ****     *isr_counter_INTC_PRIOR = priority << 5;
 175              		.loc 1 294 0
 176 0000 4001     		lsls	r0, r0, #5
 177              	.LVL5:
 178 0002 C0B2     		uxtb	r0, r0
 179 0004 014B     		ldr	r3, .L15
 180 0006 1870     		strb	r0, [r3]
 181 0008 7047     		bx	lr
 182              	.L16:
 183 000a 00BF     		.align	2
 184              	.L15:
 185 000c 07E400E0 		.word	-536812537
 186              		.cfi_endproc
 187              	.LFE70:
 188              		.size	isr_counter_SetPriority, .-isr_counter_SetPriority
 189              		.section	.text.isr_counter_GetPriority,"ax",%progbits
 190              		.align	2
 191              		.global	isr_counter_GetPriority
 192              		.thumb
 193              		.thumb_func
 194              		.type	isr_counter_GetPriority, %function
 195              	isr_counter_GetPriority:
 196              	.LFB71:
 295:isr_counter.c **** }
 296:isr_counter.c **** 
 297:isr_counter.c **** 
 298:isr_counter.c **** /*******************************************************************************
 299:isr_counter.c **** * Function Name: isr_counter_GetPriority
 300:isr_counter.c **** ********************************************************************************
 301:isr_counter.c **** *
 302:isr_counter.c **** * Summary:
 303:isr_counter.c **** *   Gets the Priority of the Interrupt.
 304:isr_counter.c **** *
 305:isr_counter.c **** * Parameters:
 306:isr_counter.c **** *   None
 307:isr_counter.c **** *
 308:isr_counter.c **** * Return:
 309:isr_counter.c **** *   Priority of the interrupt, 0 being the highest priority
 310:isr_counter.c **** *    PSoC 3 and PSoC 5LP: Priority is from 0 to 7.
 311:isr_counter.c **** *    PSoC 4: Priority is from 0 to 3.
 312:isr_counter.c **** *
 313:isr_counter.c **** *******************************************************************************/
 314:isr_counter.c **** uint8 isr_counter_GetPriority(void)
 315:isr_counter.c **** {
 197              		.loc 1 315 0
 198              		.cfi_startproc
ARM GAS  C:\Users\growo\AppData\Local\Temp\ccpMiofE.s 			page 10


 199              		@ args = 0, pretend = 0, frame = 0
 200              		@ frame_needed = 0, uses_anonymous_args = 0
 201              		@ link register save eliminated.
 316:isr_counter.c ****     uint8 priority;
 317:isr_counter.c **** 
 318:isr_counter.c **** 
 319:isr_counter.c ****     priority = *isr_counter_INTC_PRIOR >> 5;
 202              		.loc 1 319 0
 203 0000 014B     		ldr	r3, .L18
 204 0002 1878     		ldrb	r0, [r3]	@ zero_extendqisi2
 205              	.LVL6:
 320:isr_counter.c **** 
 321:isr_counter.c ****     return priority;
 322:isr_counter.c **** }
 206              		.loc 1 322 0
 207 0004 4009     		lsrs	r0, r0, #5
 208              	.LVL7:
 209 0006 7047     		bx	lr
 210              	.L19:
 211              		.align	2
 212              	.L18:
 213 0008 07E400E0 		.word	-536812537
 214              		.cfi_endproc
 215              	.LFE71:
 216              		.size	isr_counter_GetPriority, .-isr_counter_GetPriority
 217              		.section	.text.isr_counter_Enable,"ax",%progbits
 218              		.align	2
 219              		.global	isr_counter_Enable
 220              		.thumb
 221              		.thumb_func
 222              		.type	isr_counter_Enable, %function
 223              	isr_counter_Enable:
 224              	.LFB72:
 323:isr_counter.c **** 
 324:isr_counter.c **** 
 325:isr_counter.c **** /*******************************************************************************
 326:isr_counter.c **** * Function Name: isr_counter_Enable
 327:isr_counter.c **** ********************************************************************************
 328:isr_counter.c **** *
 329:isr_counter.c **** * Summary:
 330:isr_counter.c **** *   Enables the interrupt to the interrupt controller. Do not call this function
 331:isr_counter.c **** *   unless ISR_Start() has been called or the functionality of the ISR_Start() 
 332:isr_counter.c **** *   function, which sets the vector and the priority, has been called.
 333:isr_counter.c **** *
 334:isr_counter.c **** * Parameters:
 335:isr_counter.c **** *   None
 336:isr_counter.c **** *
 337:isr_counter.c **** * Return:
 338:isr_counter.c **** *   None
 339:isr_counter.c **** *
 340:isr_counter.c **** *******************************************************************************/
 341:isr_counter.c **** void isr_counter_Enable(void)
 342:isr_counter.c **** {
 225              		.loc 1 342 0
 226              		.cfi_startproc
 227              		@ args = 0, pretend = 0, frame = 0
 228              		@ frame_needed = 0, uses_anonymous_args = 0
ARM GAS  C:\Users\growo\AppData\Local\Temp\ccpMiofE.s 			page 11


 229              		@ link register save eliminated.
 343:isr_counter.c ****     /* Enable the general interrupt. */
 344:isr_counter.c ****     *isr_counter_INTC_SET_EN = isr_counter__INTC_MASK;
 230              		.loc 1 344 0
 231 0000 8022     		movs	r2, #128
 232 0002 014B     		ldr	r3, .L21
 233 0004 1A60     		str	r2, [r3]
 234 0006 7047     		bx	lr
 235              	.L22:
 236              		.align	2
 237              	.L21:
 238 0008 00E100E0 		.word	-536813312
 239              		.cfi_endproc
 240              	.LFE72:
 241              		.size	isr_counter_Enable, .-isr_counter_Enable
 242              		.section	.text.isr_counter_GetState,"ax",%progbits
 243              		.align	2
 244              		.global	isr_counter_GetState
 245              		.thumb
 246              		.thumb_func
 247              		.type	isr_counter_GetState, %function
 248              	isr_counter_GetState:
 249              	.LFB73:
 345:isr_counter.c **** }
 346:isr_counter.c **** 
 347:isr_counter.c **** 
 348:isr_counter.c **** /*******************************************************************************
 349:isr_counter.c **** * Function Name: isr_counter_GetState
 350:isr_counter.c **** ********************************************************************************
 351:isr_counter.c **** *
 352:isr_counter.c **** * Summary:
 353:isr_counter.c **** *   Gets the state (enabled, disabled) of the Interrupt.
 354:isr_counter.c **** *
 355:isr_counter.c **** * Parameters:
 356:isr_counter.c **** *   None
 357:isr_counter.c **** *
 358:isr_counter.c **** * Return:
 359:isr_counter.c **** *   1 if enabled, 0 if disabled.
 360:isr_counter.c **** *
 361:isr_counter.c **** *******************************************************************************/
 362:isr_counter.c **** uint8 isr_counter_GetState(void)
 363:isr_counter.c **** {
 250              		.loc 1 363 0
 251              		.cfi_startproc
 252              		@ args = 0, pretend = 0, frame = 0
 253              		@ frame_needed = 0, uses_anonymous_args = 0
 254              		@ link register save eliminated.
 364:isr_counter.c ****     /* Get the state of the general interrupt. */
 365:isr_counter.c ****     return ((*isr_counter_INTC_SET_EN & (uint32)isr_counter__INTC_MASK) != 0u) ? 1u:0u;
 255              		.loc 1 365 0
 256 0000 044B     		ldr	r3, .L26
 257 0002 1B68     		ldr	r3, [r3]
 258 0004 13F0800F 		tst	r3, #128
 259 0008 01D0     		beq	.L25
 260 000a 0120     		movs	r0, #1
 261 000c 7047     		bx	lr
 262              	.L25:
ARM GAS  C:\Users\growo\AppData\Local\Temp\ccpMiofE.s 			page 12


 263 000e 0020     		movs	r0, #0
 366:isr_counter.c **** }
 264              		.loc 1 366 0
 265 0010 7047     		bx	lr
 266              	.L27:
 267 0012 00BF     		.align	2
 268              	.L26:
 269 0014 00E100E0 		.word	-536813312
 270              		.cfi_endproc
 271              	.LFE73:
 272              		.size	isr_counter_GetState, .-isr_counter_GetState
 273              		.section	.text.isr_counter_Disable,"ax",%progbits
 274              		.align	2
 275              		.global	isr_counter_Disable
 276              		.thumb
 277              		.thumb_func
 278              		.type	isr_counter_Disable, %function
 279              	isr_counter_Disable:
 280              	.LFB74:
 367:isr_counter.c **** 
 368:isr_counter.c **** 
 369:isr_counter.c **** /*******************************************************************************
 370:isr_counter.c **** * Function Name: isr_counter_Disable
 371:isr_counter.c **** ********************************************************************************
 372:isr_counter.c **** *
 373:isr_counter.c **** * Summary:
 374:isr_counter.c **** *   Disables the Interrupt in the interrupt controller.
 375:isr_counter.c **** *
 376:isr_counter.c **** * Parameters:
 377:isr_counter.c **** *   None
 378:isr_counter.c **** *
 379:isr_counter.c **** * Return:
 380:isr_counter.c **** *   None
 381:isr_counter.c **** *
 382:isr_counter.c **** *******************************************************************************/
 383:isr_counter.c **** void isr_counter_Disable(void)
 384:isr_counter.c **** {
 281              		.loc 1 384 0
 282              		.cfi_startproc
 283              		@ args = 0, pretend = 0, frame = 0
 284              		@ frame_needed = 0, uses_anonymous_args = 0
 285              		@ link register save eliminated.
 385:isr_counter.c ****     /* Disable the general interrupt. */
 386:isr_counter.c ****     *isr_counter_INTC_CLR_EN = isr_counter__INTC_MASK;
 286              		.loc 1 386 0
 287 0000 8022     		movs	r2, #128
 288 0002 014B     		ldr	r3, .L29
 289 0004 1A60     		str	r2, [r3]
 290 0006 7047     		bx	lr
 291              	.L30:
 292              		.align	2
 293              	.L29:
 294 0008 80E100E0 		.word	-536813184
 295              		.cfi_endproc
 296              	.LFE74:
 297              		.size	isr_counter_Disable, .-isr_counter_Disable
 298              		.section	.text.isr_counter_Start,"ax",%progbits
ARM GAS  C:\Users\growo\AppData\Local\Temp\ccpMiofE.s 			page 13


 299              		.align	2
 300              		.global	isr_counter_Start
 301              		.thumb
 302              		.thumb_func
 303              		.type	isr_counter_Start, %function
 304              	isr_counter_Start:
 305              	.LFB64:
  70:isr_counter.c ****     /* For all we know the interrupt is active. */
 306              		.loc 1 70 0
 307              		.cfi_startproc
 308              		@ args = 0, pretend = 0, frame = 0
 309              		@ frame_needed = 0, uses_anonymous_args = 0
 310 0000 08B5     		push	{r3, lr}
 311              		.cfi_def_cfa_offset 8
 312              		.cfi_offset 3, -8
 313              		.cfi_offset 14, -4
  72:isr_counter.c **** 
 314              		.loc 1 72 0
 315 0002 FFF7FEFF 		bl	isr_counter_Disable
 316              	.LVL8:
  75:isr_counter.c **** 
 317              		.loc 1 75 0
 318 0006 0448     		ldr	r0, .L33
 319 0008 FFF7FEFF 		bl	isr_counter_SetVector
 320              	.LVL9:
  78:isr_counter.c **** 
 321              		.loc 1 78 0
 322 000c 0720     		movs	r0, #7
 323 000e FFF7FEFF 		bl	isr_counter_SetPriority
 324              	.LVL10:
  81:isr_counter.c **** }
 325              		.loc 1 81 0
 326 0012 FFF7FEFF 		bl	isr_counter_Enable
 327              	.LVL11:
 328 0016 08BD     		pop	{r3, pc}
 329              	.L34:
 330              		.align	2
 331              	.L33:
 332 0018 00000000 		.word	isr_counter_Interrupt
 333              		.cfi_endproc
 334              	.LFE64:
 335              		.size	isr_counter_Start, .-isr_counter_Start
 336              		.section	.text.isr_counter_StartEx,"ax",%progbits
 337              		.align	2
 338              		.global	isr_counter_StartEx
 339              		.thumb
 340              		.thumb_func
 341              		.type	isr_counter_StartEx, %function
 342              	isr_counter_StartEx:
 343              	.LFB65:
 113:isr_counter.c ****     /* For all we know the interrupt is active. */
 344              		.loc 1 113 0
 345              		.cfi_startproc
 346              		@ args = 0, pretend = 0, frame = 0
 347              		@ frame_needed = 0, uses_anonymous_args = 0
 348              	.LVL12:
 349 0000 10B5     		push	{r4, lr}
ARM GAS  C:\Users\growo\AppData\Local\Temp\ccpMiofE.s 			page 14


 350              		.cfi_def_cfa_offset 8
 351              		.cfi_offset 4, -8
 352              		.cfi_offset 14, -4
 353 0002 0446     		mov	r4, r0
 115:isr_counter.c **** 
 354              		.loc 1 115 0
 355 0004 FFF7FEFF 		bl	isr_counter_Disable
 356              	.LVL13:
 118:isr_counter.c **** 
 357              		.loc 1 118 0
 358 0008 2046     		mov	r0, r4
 359 000a FFF7FEFF 		bl	isr_counter_SetVector
 360              	.LVL14:
 121:isr_counter.c **** 
 361              		.loc 1 121 0
 362 000e 0720     		movs	r0, #7
 363 0010 FFF7FEFF 		bl	isr_counter_SetPriority
 364              	.LVL15:
 124:isr_counter.c **** }
 365              		.loc 1 124 0
 366 0014 FFF7FEFF 		bl	isr_counter_Enable
 367              	.LVL16:
 368 0018 10BD     		pop	{r4, pc}
 369              		.cfi_endproc
 370              	.LFE65:
 371              		.size	isr_counter_StartEx, .-isr_counter_StartEx
 372 001a 00BF     		.section	.text.isr_counter_Stop,"ax",%progbits
 373              		.align	2
 374              		.global	isr_counter_Stop
 375              		.thumb
 376              		.thumb_func
 377              		.type	isr_counter_Stop, %function
 378              	isr_counter_Stop:
 379              	.LFB66:
 143:isr_counter.c ****     /* Disable this interrupt. */
 380              		.loc 1 143 0
 381              		.cfi_startproc
 382              		@ args = 0, pretend = 0, frame = 0
 383              		@ frame_needed = 0, uses_anonymous_args = 0
 384 0000 08B5     		push	{r3, lr}
 385              		.cfi_def_cfa_offset 8
 386              		.cfi_offset 3, -8
 387              		.cfi_offset 14, -4
 145:isr_counter.c **** 
 388              		.loc 1 145 0
 389 0002 FFF7FEFF 		bl	isr_counter_Disable
 390              	.LVL17:
 148:isr_counter.c **** }
 391              		.loc 1 148 0
 392 0006 0248     		ldr	r0, .L39
 393 0008 FFF7FEFF 		bl	isr_counter_SetVector
 394              	.LVL18:
 395 000c 08BD     		pop	{r3, pc}
 396              	.L40:
 397 000e 00BF     		.align	2
 398              	.L39:
 399 0010 00000000 		.word	IntDefaultHandler
ARM GAS  C:\Users\growo\AppData\Local\Temp\ccpMiofE.s 			page 15


 400              		.cfi_endproc
 401              	.LFE66:
 402              		.size	isr_counter_Stop, .-isr_counter_Stop
 403              		.section	.text.isr_counter_SetPending,"ax",%progbits
 404              		.align	2
 405              		.global	isr_counter_SetPending
 406              		.thumb
 407              		.thumb_func
 408              		.type	isr_counter_SetPending, %function
 409              	isr_counter_SetPending:
 410              	.LFB75:
 387:isr_counter.c **** }
 388:isr_counter.c **** 
 389:isr_counter.c **** 
 390:isr_counter.c **** /*******************************************************************************
 391:isr_counter.c **** * Function Name: isr_counter_SetPending
 392:isr_counter.c **** ********************************************************************************
 393:isr_counter.c **** *
 394:isr_counter.c **** * Summary:
 395:isr_counter.c **** *   Causes the Interrupt to enter the pending state, a software method of
 396:isr_counter.c **** *   generating the interrupt.
 397:isr_counter.c **** *
 398:isr_counter.c **** * Parameters:
 399:isr_counter.c **** *   None
 400:isr_counter.c **** *
 401:isr_counter.c **** * Return:
 402:isr_counter.c **** *   None
 403:isr_counter.c **** *
 404:isr_counter.c **** * Side Effects:
 405:isr_counter.c **** *   If interrupts are enabled and the interrupt is set up properly, the ISR is
 406:isr_counter.c **** *   entered (depending on the priority of this interrupt and other pending 
 407:isr_counter.c **** *   interrupts).
 408:isr_counter.c **** *
 409:isr_counter.c **** *******************************************************************************/
 410:isr_counter.c **** void isr_counter_SetPending(void)
 411:isr_counter.c **** {
 411              		.loc 1 411 0
 412              		.cfi_startproc
 413              		@ args = 0, pretend = 0, frame = 0
 414              		@ frame_needed = 0, uses_anonymous_args = 0
 415              		@ link register save eliminated.
 412:isr_counter.c ****     *isr_counter_INTC_SET_PD = isr_counter__INTC_MASK;
 416              		.loc 1 412 0
 417 0000 8022     		movs	r2, #128
 418 0002 014B     		ldr	r3, .L42
 419 0004 1A60     		str	r2, [r3]
 420 0006 7047     		bx	lr
 421              	.L43:
 422              		.align	2
 423              	.L42:
 424 0008 00E200E0 		.word	-536813056
 425              		.cfi_endproc
 426              	.LFE75:
 427              		.size	isr_counter_SetPending, .-isr_counter_SetPending
 428              		.section	.text.isr_counter_ClearPending,"ax",%progbits
 429              		.align	2
 430              		.global	isr_counter_ClearPending
ARM GAS  C:\Users\growo\AppData\Local\Temp\ccpMiofE.s 			page 16


 431              		.thumb
 432              		.thumb_func
 433              		.type	isr_counter_ClearPending, %function
 434              	isr_counter_ClearPending:
 435              	.LFB76:
 413:isr_counter.c **** }
 414:isr_counter.c **** 
 415:isr_counter.c **** 
 416:isr_counter.c **** /*******************************************************************************
 417:isr_counter.c **** * Function Name: isr_counter_ClearPending
 418:isr_counter.c **** ********************************************************************************
 419:isr_counter.c **** *
 420:isr_counter.c **** * Summary:
 421:isr_counter.c **** *   Clears a pending interrupt in the interrupt controller.
 422:isr_counter.c **** *
 423:isr_counter.c **** *   Note Some interrupt sources are clear-on-read and require the block 
 424:isr_counter.c **** *   interrupt/status register to be read/cleared with the appropriate block API 
 425:isr_counter.c **** *   (GPIO, UART, and so on). Otherwise the ISR will continue to remain in 
 426:isr_counter.c **** *   pending state even though the interrupt itself is cleared using this API.
 427:isr_counter.c **** *
 428:isr_counter.c **** * Parameters:
 429:isr_counter.c **** *   None
 430:isr_counter.c **** *
 431:isr_counter.c **** * Return:
 432:isr_counter.c **** *   None
 433:isr_counter.c **** *
 434:isr_counter.c **** *******************************************************************************/
 435:isr_counter.c **** void isr_counter_ClearPending(void)
 436:isr_counter.c **** {
 436              		.loc 1 436 0
 437              		.cfi_startproc
 438              		@ args = 0, pretend = 0, frame = 0
 439              		@ frame_needed = 0, uses_anonymous_args = 0
 440              		@ link register save eliminated.
 437:isr_counter.c ****     *isr_counter_INTC_CLR_PD = isr_counter__INTC_MASK;
 441              		.loc 1 437 0
 442 0000 8022     		movs	r2, #128
 443 0002 014B     		ldr	r3, .L45
 444 0004 1A60     		str	r2, [r3]
 445 0006 7047     		bx	lr
 446              	.L46:
 447              		.align	2
 448              	.L45:
 449 0008 80E200E0 		.word	-536812928
 450              		.cfi_endproc
 451              	.LFE76:
 452              		.size	isr_counter_ClearPending, .-isr_counter_ClearPending
 453              		.comm	t_ha,4,4
 454              		.comm	rotor_direction,1,1
 455              		.comm	aux,2,2
 456              		.comm	last_count,2,2
 457              		.comm	counter,4,4
 458              		.comm	_state_,4,4
 459              		.comm	_uart_Reset,1,1
 460              		.comm	SendEmulatedData,1,1
 461              		.comm	SendSingleByte,1,1
 462              		.comm	ContinuouslySendData,1,1
ARM GAS  C:\Users\growo\AppData\Local\Temp\ccpMiofE.s 			page 17


 463              		.comm	Ch,1,1
 464              		.comm	PB,16,4
 465              		.comm	RB,20,4
 466              		.text
 467              	.Letext0:
 468              		.file 2 "c:\\program files (x86)\\cypress\\psoc creator\\4.1\\psoc creator\\import\\gnu\\arm\\5.4.
 469              		.file 3 "c:\\program files (x86)\\cypress\\psoc creator\\4.1\\psoc creator\\import\\gnu\\arm\\5.4.
 470              		.file 4 "Generated_Source\\PSoC5/cytypes.h"
 471              		.file 5 "myUART.h"
 472              		.file 6 "global.h"
 473              		.file 7 "Generated_Source\\PSoC5/core_cm3.h"
 474              		.file 8 "Generated_Source\\PSoC5/DirCounter.h"