ARM GAS  C:\Users\GONZAL~1\AppData\Local\Temp\ccdx4Qb3.s 			page 1


   1              		.syntax unified
   2              		.cpu cortex-m3
   3              		.fpu softvfp
   4              		.eabi_attribute 20, 1
   5              		.eabi_attribute 21, 1
   6              		.eabi_attribute 23, 3
   7              		.eabi_attribute 24, 1
   8              		.eabi_attribute 25, 1
   9              		.eabi_attribute 26, 1
  10              		.eabi_attribute 30, 1
  11              		.eabi_attribute 34, 1
  12              		.eabi_attribute 18, 4
  13              		.thumb
  14              		.syntax unified
  15              		.file	"main.c"
  16              		.text
  17              	.Ltext0:
  18              		.cfi_sections	.debug_frame
  19              		.section	.text.initHardware,"ax",%progbits
  20              		.align	2
  21              		.global	initHardware
  22              		.thumb
  23              		.thumb_func
  24              		.type	initHardware, %function
  25              	initHardware:
  26              	.LFB64:
  27              		.file 1 "main.c"
   1:main.c        **** /* ========================================
   2:main.c        ****  *
   3:main.c        ****  * Copyright YOUR COMPANY, THE YEAR
   4:main.c        ****  * All Rights Reserved
   5:main.c        ****  * UNPUBLISHED, LICENSED SOFTWARE.
   6:main.c        ****  *
   7:main.c        ****  * CONFIDENTIAL AND PROPRIETARY INFORMATION
   8:main.c        ****  * WHICH IS THE PROPERTY OF your company.
   9:main.c        ****  *
  10:main.c        ****  * ========================================
  11:main.c        **** */
  12:main.c        **** #include "global.h"
  13:main.c        **** #include "math.h"
  14:main.c        **** 
  15:main.c        **** //#define M_PIN_SET(pin) #pin"_DR |=" #pin"_MASK"
  16:main.c        **** 
  17:main.c        **** void initHardware(void){
  28              		.loc 1 17 0
  29              		.cfi_startproc
  30              		@ args = 0, pretend = 0, frame = 0
  31              		@ frame_needed = 0, uses_anonymous_args = 0
  32 0000 08B5     		push	{r3, lr}
  33              		.cfi_def_cfa_offset 8
  34              		.cfi_offset 3, -8
  35              		.cfi_offset 14, -4
  18:main.c        ****     
  19:main.c        ****     ADC_Start();
  36              		.loc 1 19 0
  37 0002 FFF7FEFF 		bl	ADC_Start
  38              	.LVL0:
ARM GAS  C:\Users\GONZAL~1\AppData\Local\Temp\ccdx4Qb3.s 			page 2


  20:main.c        ****     ADC_TS_Start();
  39              		.loc 1 20 0
  40 0006 FFF7FEFF 		bl	ADC_TS_Start
  41              	.LVL1:
  21:main.c        ****     
  22:main.c        ****     PM1_HA_TIMER_Start();
  42              		.loc 1 22 0
  43 000a FFF7FEFF 		bl	PM1_HA_TIMER_Start
  44              	.LVL2:
  23:main.c        ****     PM1_DirCounter_Start();
  45              		.loc 1 23 0
  46 000e FFF7FEFF 		bl	PM1_DirCounter_Start
  47              	.LVL3:
  24:main.c        ****     PM1_SPD_VDAC8_Start();
  48              		.loc 1 24 0
  49 0012 FFF7FEFF 		bl	PM1_SPD_VDAC8_Start
  50              	.LVL4:
  25:main.c        ****     
  26:main.c        ****     PM2_HA_TIMER_Start();
  51              		.loc 1 26 0
  52 0016 FFF7FEFF 		bl	PM2_HA_TIMER_Start
  53              	.LVL5:
  27:main.c        ****     PM2_DirCounter_Start();
  54              		.loc 1 27 0
  55 001a FFF7FEFF 		bl	PM2_DirCounter_Start
  56              	.LVL6:
  28:main.c        ****     PM2_SPD_VDAC8_Start();
  57              		.loc 1 28 0
  58 001e FFF7FEFF 		bl	PM2_SPD_VDAC8_Start
  59              	.LVL7:
  29:main.c        ****     
  30:main.c        ****     UART_Start();
  60              		.loc 1 30 0
  61 0022 FFF7FEFF 		bl	UART_Start
  62              	.LVL8:
  31:main.c        ****     
  32:main.c        ****     /* Initialize interrupt blocks */
  33:main.c        ****     RxInt_StartEx(MyRxInt);
  63              		.loc 1 33 0
  64 0026 0948     		ldr	r0, .L3
  65 0028 FFF7FEFF 		bl	RxInt_StartEx
  66              	.LVL9:
  34:main.c        ****     
  35:main.c        ****     SPD_COMMAND_ISR_StartEx(SPD_COMMAND_INT);
  67              		.loc 1 35 0
  68 002c 0848     		ldr	r0, .L3+4
  69 002e FFF7FEFF 		bl	SPD_COMMAND_ISR_StartEx
  70              	.LVL10:
  36:main.c        ****     RVT_COMMAND_ISR_StartEx(RVT_COMMAND_INT);
  71              		.loc 1 36 0
  72 0032 0848     		ldr	r0, .L3+8
  73 0034 FFF7FEFF 		bl	RVT_COMMAND_ISR_StartEx
  74              	.LVL11:
  37:main.c        ****     TNS_COMMAND_ISR_StartEx(TNS_COMMAND_INT);
  75              		.loc 1 37 0
  76 0038 0748     		ldr	r0, .L3+12
  77 003a FFF7FEFF 		bl	TNS_COMMAND_ISR_StartEx
ARM GAS  C:\Users\GONZAL~1\AppData\Local\Temp\ccdx4Qb3.s 			page 3


  78              	.LVL12:
  38:main.c        ****     
  39:main.c        ****     READ_RVT_ISR_StartEx(READ_RVT_INT);
  79              		.loc 1 39 0
  80 003e 0748     		ldr	r0, .L3+16
  81 0040 FFF7FEFF 		bl	READ_RVT_ISR_StartEx
  82              	.LVL13:
  40:main.c        ****     CHECK_MOVEMENT_ISR_StartEx(CHECK_MOVEMENT_INT);
  83              		.loc 1 40 0
  84 0044 0648     		ldr	r0, .L3+20
  85 0046 FFF7FEFF 		bl	CHECK_MOVEMENT_ISR_StartEx
  86              	.LVL14:
  87 004a 08BD     		pop	{r3, pc}
  88              	.L4:
  89              		.align	2
  90              	.L3:
  91 004c 00000000 		.word	MyRxInt
  92 0050 00000000 		.word	SPD_COMMAND_INT
  93 0054 00000000 		.word	RVT_COMMAND_INT
  94 0058 00000000 		.word	TNS_COMMAND_INT
  95 005c 00000000 		.word	READ_RVT_INT
  96 0060 00000000 		.word	CHECK_MOVEMENT_INT
  97              		.cfi_endproc
  98              	.LFE64:
  99              		.size	initHardware, .-initHardware
 100              		.section	.text.initMotors,"ax",%progbits
 101              		.align	2
 102              		.global	initMotors
 103              		.thumb
 104              		.thumb_func
 105              		.type	initMotors, %function
 106              	initMotors:
 107              	.LFB65:
  41:main.c        **** 
  42:main.c        **** }
  43:main.c        **** 
  44:main.c        **** void initMotors()
  45:main.c        **** {
 108              		.loc 1 45 0
 109              		.cfi_startproc
 110              		@ args = 0, pretend = 0, frame = 88
 111              		@ frame_needed = 0, uses_anonymous_args = 0
 112 0000 2DE9F043 		push	{r4, r5, r6, r7, r8, r9, lr}
 113              		.cfi_def_cfa_offset 28
 114              		.cfi_offset 4, -28
 115              		.cfi_offset 5, -24
 116              		.cfi_offset 6, -20
 117              		.cfi_offset 7, -16
 118              		.cfi_offset 8, -12
 119              		.cfi_offset 9, -8
 120              		.cfi_offset 14, -4
 121 0004 9BB0     		sub	sp, sp, #108
 122              		.cfi_def_cfa_offset 136
  46:main.c        ****     float rvt[3] = {KP_POS, KI_POS, KD_POS}; 
 123              		.loc 1 46 0
 124 0006 3D4B     		ldr	r3, .L7
 125 0008 17AD     		add	r5, sp, #92
ARM GAS  C:\Users\GONZAL~1\AppData\Local\Temp\ccdx4Qb3.s 			page 4


 126 000a 93E80700 		ldmia	r3, {r0, r1, r2}
 127 000e 85E80700 		stmia	r5, {r0, r1, r2}
  47:main.c        ****     float spd[3] = {KP_VEL, KI_VEL, KD_VEL}; 
 128              		.loc 1 47 0
 129 0012 14AE     		add	r6, sp, #80
 130 0014 03F10C02 		add	r2, r3, #12
 131 0018 07CA     		ldmia	r2, {r0, r1, r2}
 132 001a 86E80700 		stmia	r6, {r0, r1, r2}
  48:main.c        ****     float tns[3] = {KP_TENS, KI_TENS, KD_TENS};
 133              		.loc 1 48 0
 134 001e 11AF     		add	r7, sp, #68
 135 0020 1833     		adds	r3, r3, #24
 136 0022 93E80700 		ldmia	r3, {r0, r1, r2}
 137 0026 87E80700 		stmia	r7, {r0, r1, r2}
  49:main.c        ****         
  50:main.c        ****     PIN_t PM1_BR,PM1_DR,PM1_EN;
  51:main.c        ****     PIN_t PM2_BR,PM2_DR,PM2_EN;
  52:main.c        **** 
  53:main.c        ****     PM1_BR.DR = &PM1_BRAKEn_DR;
 138              		.loc 1 53 0
 139 002a 354A     		ldr	r2, .L7+4
 140 002c 0F92     		str	r2, [sp, #60]
  54:main.c        ****     PM1_BR.MASK = PM1_BRAKEn_MASK;
 141              		.loc 1 54 0
 142 002e 0123     		movs	r3, #1
 143 0030 8DF84030 		strb	r3, [sp, #64]
  55:main.c        ****     PM1_BR.STATE = 0;
 144              		.loc 1 55 0
 145 0034 0021     		movs	r1, #0
 146 0036 8DF84110 		strb	r1, [sp, #65]
  56:main.c        ****     PM1_DR.DR = &PM1_DIR_DR;
 147              		.loc 1 56 0
 148 003a 0D92     		str	r2, [sp, #52]
  57:main.c        ****     PM1_DR.MASK = PM1_DIR_MASK;
 149              		.loc 1 57 0
 150 003c 0220     		movs	r0, #2
 151 003e 8DF83800 		strb	r0, [sp, #56]
  58:main.c        ****     PM1_DR.STATE = 1;
 152              		.loc 1 58 0
 153 0042 8DF83930 		strb	r3, [sp, #57]
  59:main.c        ****     PM1_EN.DR = &PM1_ENABLE_DR;
 154              		.loc 1 59 0
 155 0046 0B92     		str	r2, [sp, #44]
  60:main.c        ****     PM1_EN.MASK = PM1_ENABLE_MASK;
 156              		.loc 1 60 0
 157 0048 0422     		movs	r2, #4
 158 004a 8DF83020 		strb	r2, [sp, #48]
  61:main.c        ****     PM1_EN.STATE = 1;
 159              		.loc 1 61 0
 160 004e 8DF83130 		strb	r3, [sp, #49]
  62:main.c        ****     
  63:main.c        ****     PM2_BR.DR = &PM2_BRAKEn_DR;
 161              		.loc 1 63 0
 162 0052 2C4A     		ldr	r2, .L7+8
 163 0054 0992     		str	r2, [sp, #36]
  64:main.c        ****     PM2_BR.MASK = PM2_BRAKEn_MASK;
 164              		.loc 1 64 0
ARM GAS  C:\Users\GONZAL~1\AppData\Local\Temp\ccdx4Qb3.s 			page 5


 165 0056 1020     		movs	r0, #16
 166 0058 8DF82800 		strb	r0, [sp, #40]
  65:main.c        ****     PM2_BR.STATE = 0;
 167              		.loc 1 65 0
 168 005c 8DF82910 		strb	r1, [sp, #41]
  66:main.c        ****     PM2_DR.DR = &PM2_DIR_DR;
 169              		.loc 1 66 0
 170 0060 0792     		str	r2, [sp, #28]
  67:main.c        ****     PM2_DR.MASK = PM2_DIR_MASK;
 171              		.loc 1 67 0
 172 0062 2021     		movs	r1, #32
 173 0064 8DF82010 		strb	r1, [sp, #32]
  68:main.c        ****     PM2_DR.STATE = 1;
 174              		.loc 1 68 0
 175 0068 8DF82130 		strb	r3, [sp, #33]
  69:main.c        ****     PM2_EN.DR = &PM2_ENABLE_DR;
 176              		.loc 1 69 0
 177 006c 0592     		str	r2, [sp, #20]
  70:main.c        ****     PM2_EN.MASK = PM2_ENABLE_MASK;
 178              		.loc 1 70 0
 179 006e 4022     		movs	r2, #64
 180 0070 8DF81820 		strb	r2, [sp, #24]
  71:main.c        ****     PM2_EN.STATE = 1;
 181              		.loc 1 71 0
 182 0074 8DF81930 		strb	r3, [sp, #25]
  72:main.c        ****     
  73:main.c        ****     PM1.control_mode = 1;
 183              		.loc 1 73 0
 184 0078 234C     		ldr	r4, .L7+12
 185 007a 2370     		strb	r3, [r4]
  74:main.c        ****     PM2.control_mode = 1;
 186              		.loc 1 74 0
 187 007c DFF89C90 		ldr	r9, .L7+32
 188 0080 89F80030 		strb	r3, [r9]
  75:main.c        ****     
  76:main.c        ****     PM1.L = 40.0;
 189              		.loc 1 76 0
 190 0084 214B     		ldr	r3, .L7+16
 191 0086 C4F80831 		str	r3, [r4, #264]	@ float
  77:main.c        ****     PM1.A = 1.5;
 192              		.loc 1 77 0
 193 008a 4FF07F53 		mov	r3, #1069547520
 194 008e C4F80C31 		str	r3, [r4, #268]	@ float
  78:main.c        ****     PM1.R = 0.19;
 195              		.loc 1 78 0
 196 0092 1F4B     		ldr	r3, .L7+20
 197 0094 C4F80431 		str	r3, [r4, #260]	@ float
  79:main.c        ****     
  80:main.c        ****     PM1_HA_ISR_StartEx(PM1_HA_INT);
 198              		.loc 1 80 0
 199 0098 1E48     		ldr	r0, .L7+24
 200 009a FFF7FEFF 		bl	PM1_HA_ISR_StartEx
 201              	.LVL15:
  81:main.c        ****     MOTOR_initControlParams(&PM1,rvt,spd,tns);
 202              		.loc 1 81 0
 203 009e 3B46     		mov	r3, r7
 204 00a0 3246     		mov	r2, r6
ARM GAS  C:\Users\GONZAL~1\AppData\Local\Temp\ccdx4Qb3.s 			page 6


 205 00a2 2946     		mov	r1, r5
 206 00a4 2046     		mov	r0, r4
 207 00a6 FFF7FEFF 		bl	MOTOR_initControlParams
 208              	.LVL16:
  82:main.c        ****     MOTOR_init(&PM1,PM1_EN,PM1_BR,PM1_DR);
 209              		.loc 1 82 0
 210 00aa 0DF10408 		add	r8, sp, #4
 211 00ae 0DAB     		add	r3, sp, #52
 212 00b0 93E80300 		ldmia	r3, {r0, r1}
 213 00b4 88E80300 		stmia	r8, {r0, r1}
 214 00b8 109B     		ldr	r3, [sp, #64]
 215 00ba 0093     		str	r3, [sp]
 216 00bc 0F9B     		ldr	r3, [sp, #60]
 217 00be 0BAA     		add	r2, sp, #44
 218 00c0 06CA     		ldmia	r2, {r1, r2}
 219 00c2 2046     		mov	r0, r4
 220 00c4 FFF7FEFF 		bl	MOTOR_init
 221              	.LVL17:
  83:main.c        ****     
  84:main.c        ****     PM2_HA_ISR_StartEx(PM2_HA_INT);
 222              		.loc 1 84 0
 223 00c8 1348     		ldr	r0, .L7+28
 224 00ca FFF7FEFF 		bl	PM2_HA_ISR_StartEx
 225              	.LVL18:
  85:main.c        ****     MOTOR_initControlParams(&PM2,rvt,spd,tns);
 226              		.loc 1 85 0
 227 00ce 3B46     		mov	r3, r7
 228 00d0 3246     		mov	r2, r6
 229 00d2 2946     		mov	r1, r5
 230 00d4 4846     		mov	r0, r9
 231 00d6 FFF7FEFF 		bl	MOTOR_initControlParams
 232              	.LVL19:
  86:main.c        ****     MOTOR_init(&PM2,PM2_EN,PM2_BR,PM2_DR);
 233              		.loc 1 86 0
 234 00da 07AB     		add	r3, sp, #28
 235 00dc 93E80300 		ldmia	r3, {r0, r1}
 236 00e0 88E80300 		stmia	r8, {r0, r1}
 237 00e4 0A9B     		ldr	r3, [sp, #40]
 238 00e6 0093     		str	r3, [sp]
 239 00e8 099B     		ldr	r3, [sp, #36]
 240 00ea 05AA     		add	r2, sp, #20
 241 00ec 06CA     		ldmia	r2, {r1, r2}
 242 00ee 4846     		mov	r0, r9
 243 00f0 FFF7FEFF 		bl	MOTOR_init
 244              	.LVL20:
  87:main.c        ****     
  88:main.c        **** }
 245              		.loc 1 88 0
 246 00f4 1BB0     		add	sp, sp, #108
 247              		.cfi_def_cfa_offset 28
 248              		@ sp needed
 249 00f6 BDE8F083 		pop	{r4, r5, r6, r7, r8, r9, pc}
 250              	.L8:
 251 00fa 00BF     		.align	2
 252              	.L7:
 253 00fc 00000000 		.word	.LANCHOR0
 254 0100 C0510040 		.word	1073762752
ARM GAS  C:\Users\GONZAL~1\AppData\Local\Temp\ccdx4Qb3.s 			page 7


 255 0104 10510040 		.word	1073762576
 256 0108 00000000 		.word	PM1
 257 010c 00002042 		.word	1109393408
 258 0110 5C8F423E 		.word	1044549468
 259 0114 00000000 		.word	PM1_HA_INT
 260 0118 00000000 		.word	PM2_HA_INT
 261 011c 00000000 		.word	PM2
 262              		.cfi_endproc
 263              	.LFE65:
 264              		.size	initMotors, .-initMotors
 265              		.global	__aeabi_f2d
 266              		.global	__aeabi_dmul
 267              		.global	__aeabi_d2iz
 268              		.section	.text.main,"ax",%progbits
 269              		.align	2
 270              		.global	main
 271              		.thumb
 272              		.thumb_func
 273              		.type	main, %function
 274              	main:
 275              	.LFB66:
  89:main.c        **** 
  90:main.c        **** int main(void)
  91:main.c        **** {
 276              		.loc 1 91 0
 277              		.cfi_startproc
 278              		@ args = 0, pretend = 0, frame = 16
 279              		@ frame_needed = 0, uses_anonymous_args = 0
 280 0000 2DE9F043 		push	{r4, r5, r6, r7, r8, r9, lr}
 281              		.cfi_def_cfa_offset 28
 282              		.cfi_offset 4, -28
 283              		.cfi_offset 5, -24
 284              		.cfi_offset 6, -20
 285              		.cfi_offset 7, -16
 286              		.cfi_offset 8, -12
 287              		.cfi_offset 9, -8
 288              		.cfi_offset 14, -4
 289 0004 87B0     		sub	sp, sp, #28
 290              		.cfi_def_cfa_offset 56
  92:main.c        ****     extern volatile int16_t _tVal;
  93:main.c        ****     char TransmitBuffer[TRANSMIT_BUFFER_SIZE];
  94:main.c        ****    
  95:main.c        ****     initHardware();
 291              		.loc 1 95 0
 292 0006 FFF7FEFF 		bl	initHardware
 293              	.LVL21:
  96:main.c        ****     initMotors();
 294              		.loc 1 96 0
 295 000a FFF7FEFF 		bl	initMotors
 296              	.LVL22:
  97:main.c        **** 
  98:main.c        ****     ADC_StartConvert();
 297              		.loc 1 98 0
 298 000e FFF7FEFF 		bl	ADC_StartConvert
 299              	.LVL23:
  99:main.c        ****     ADC_TS_StartConvert();
 300              		.loc 1 99 0
ARM GAS  C:\Users\GONZAL~1\AppData\Local\Temp\ccdx4Qb3.s 			page 8


 301 0012 FFF7FEFF 		bl	ADC_TS_StartConvert
 302              	.LVL24:
 100:main.c        ****         
 101:main.c        ****     /* Initialize Variables */
 102:main.c        ****     ContinuouslySendData = FALSE;
 303              		.loc 1 102 0
 304 0016 0023     		movs	r3, #0
 305 0018 9F4A     		ldr	r2, .L28
 306 001a 1370     		strb	r3, [r2]
 103:main.c        ****     SendSingleByte = FALSE;
 307              		.loc 1 103 0
 308 001c 9F4A     		ldr	r2, .L28+4
 309 001e 1370     		strb	r3, [r2]
 104:main.c        ****     SendEmulatedData = FALSE;
 310              		.loc 1 104 0
 311 0020 9F4A     		ldr	r2, .L28+8
 312 0022 1370     		strb	r3, [r2]
 105:main.c        **** 
 106:main.c        **** //    PM1_ENABLE_Write(PM1.ENABLE.STATE); // true: speed control, else: external pwm control
 107:main.c        **** //    //SPEED_Write(TRUE); // true: external pwm control, else: analog voltage control
 108:main.c        **** //    PM1_DIR_Write(PM1.DIR.STATE);     // true: left(ccw), false: right(cw)
 109:main.c        **** //    PM1_BRAKEn_Write(PM1.BRAKEn.STATE);  // true: turning, false: braken
 110:main.c        ****     
 111:main.c        ****     CyDelay(250);
 313              		.loc 1 111 0
 314 0024 FA20     		movs	r0, #250
 315 0026 FFF7FEFF 		bl	CyDelay
 316              	.LVL25:
 112:main.c        ****     
 113:main.c        ****     while(_state_ == 0){
 317              		.loc 1 113 0
 318 002a CBE0     		b	.L10
 319              	.L16:
 114:main.c        ****         Ch = UART_GetChar();
 320              		.loc 1 114 0
 321 002c FFF7FEFF 		bl	UART_GetChar
 322              	.LVL26:
 323 0030 9C4B     		ldr	r3, .L28+12
 324 0032 1870     		strb	r0, [r3]
 115:main.c        ****         if(Ch == 'n'){
 325              		.loc 1 115 0
 326 0034 1B78     		ldrb	r3, [r3]	@ zero_extendqisi2
 327 0036 DBB2     		uxtb	r3, r3
 328 0038 6E2B     		cmp	r3, #110
 329 003a 40F0BA80 		bne	.L11
 116:main.c        ****             sprintf(TransmitBuffer, "& INIT CTRL_TYPE = %d\r\n",PM1.control_mode);
 330              		.loc 1 116 0
 331 003e 9A4C     		ldr	r4, .L28+16
 332 0040 2278     		ldrb	r2, [r4]	@ zero_extendqisi2
 333 0042 9A49     		ldr	r1, .L28+20
 334 0044 02A8     		add	r0, sp, #8
 335 0046 FFF7FEFF 		bl	sprintf
 336              	.LVL27:
 117:main.c        ****             UART_PutString(TransmitBuffer);
 337              		.loc 1 117 0
 338 004a 02A8     		add	r0, sp, #8
 339 004c FFF7FEFF 		bl	UART_PutString
ARM GAS  C:\Users\GONZAL~1\AppData\Local\Temp\ccdx4Qb3.s 			page 9


 340              	.LVL28:
 118:main.c        ****             sprintf(TransmitBuffer, "!%d\r\n",PM1.control_mode);
 341              		.loc 1 118 0
 342 0050 2278     		ldrb	r2, [r4]	@ zero_extendqisi2
 343 0052 9749     		ldr	r1, .L28+24
 344 0054 02A8     		add	r0, sp, #8
 345 0056 FFF7FEFF 		bl	sprintf
 346              	.LVL29:
 119:main.c        ****             UART_PutString(TransmitBuffer);
 347              		.loc 1 119 0
 348 005a 02A8     		add	r0, sp, #8
 349 005c FFF7FEFF 		bl	UART_PutString
 350              	.LVL30:
 120:main.c        ****             if (PM1.control_mode == 1){
 351              		.loc 1 120 0
 352 0060 2378     		ldrb	r3, [r4]	@ zero_extendqisi2
 353 0062 012B     		cmp	r3, #1
 354 0064 32D1     		bne	.L12
 121:main.c        ****                 sprintf(TransmitBuffer, "*%d*%d*%d\r\n",(int)(PM1.rvt_params[0]*100.0),(int)(PM1.rv
 355              		.loc 1 121 0
 356 0066 D4F89400 		ldr	r0, [r4, #148]	@ float
 357 006a FFF7FEFF 		bl	__aeabi_f2d
 358              	.LVL31:
 359 006e 0022     		movs	r2, #0
 360 0070 904B     		ldr	r3, .L28+28
 361 0072 FFF7FEFF 		bl	__aeabi_dmul
 362              	.LVL32:
 363 0076 0646     		mov	r6, r0
 364 0078 0F46     		mov	r7, r1
 365 007a D4F89800 		ldr	r0, [r4, #152]	@ float
 366 007e FFF7FEFF 		bl	__aeabi_f2d
 367              	.LVL33:
 368 0082 0022     		movs	r2, #0
 369 0084 8B4B     		ldr	r3, .L28+28
 370 0086 FFF7FEFF 		bl	__aeabi_dmul
 371              	.LVL34:
 372 008a 8046     		mov	r8, r0
 373 008c 8946     		mov	r9, r1
 374 008e D4F89C00 		ldr	r0, [r4, #156]	@ float
 375 0092 FFF7FEFF 		bl	__aeabi_f2d
 376              	.LVL35:
 377 0096 0022     		movs	r2, #0
 378 0098 864B     		ldr	r3, .L28+28
 379 009a FFF7FEFF 		bl	__aeabi_dmul
 380              	.LVL36:
 381 009e 0446     		mov	r4, r0
 382 00a0 0D46     		mov	r5, r1
 383 00a2 4046     		mov	r0, r8
 384 00a4 4946     		mov	r1, r9
 385 00a6 FFF7FEFF 		bl	__aeabi_d2iz
 386              	.LVL37:
 387 00aa 8046     		mov	r8, r0
 388 00ac 3046     		mov	r0, r6
 389 00ae 3946     		mov	r1, r7
 390 00b0 FFF7FEFF 		bl	__aeabi_d2iz
 391              	.LVL38:
 392 00b4 0646     		mov	r6, r0
ARM GAS  C:\Users\GONZAL~1\AppData\Local\Temp\ccdx4Qb3.s 			page 10


 393 00b6 2046     		mov	r0, r4
 394 00b8 2946     		mov	r1, r5
 395 00ba FFF7FEFF 		bl	__aeabi_d2iz
 396              	.LVL39:
 397 00be 0090     		str	r0, [sp]
 398 00c0 4346     		mov	r3, r8
 399 00c2 3246     		mov	r2, r6
 400 00c4 7C49     		ldr	r1, .L28+32
 401 00c6 02A8     		add	r0, sp, #8
 402 00c8 FFF7FEFF 		bl	sprintf
 403              	.LVL40:
 404              	.L12:
 122:main.c        ****             }
 123:main.c        ****             if (PM1.control_mode == 2){
 405              		.loc 1 123 0
 406 00cc 764B     		ldr	r3, .L28+16
 407 00ce 1B78     		ldrb	r3, [r3]	@ zero_extendqisi2
 408 00d0 022B     		cmp	r3, #2
 409 00d2 33D1     		bne	.L13
 124:main.c        ****                 sprintf(TransmitBuffer, "*%d*%d*%d\r\n",(int)(PM1.spd_params[0]*100.0),(int)(PM1.sp
 410              		.loc 1 124 0
 411 00d4 744C     		ldr	r4, .L28+16
 412 00d6 D4F88800 		ldr	r0, [r4, #136]	@ float
 413 00da FFF7FEFF 		bl	__aeabi_f2d
 414              	.LVL41:
 415 00de 0022     		movs	r2, #0
 416 00e0 744B     		ldr	r3, .L28+28
 417 00e2 FFF7FEFF 		bl	__aeabi_dmul
 418              	.LVL42:
 419 00e6 0646     		mov	r6, r0
 420 00e8 0F46     		mov	r7, r1
 421 00ea D4F88C00 		ldr	r0, [r4, #140]	@ float
 422 00ee FFF7FEFF 		bl	__aeabi_f2d
 423              	.LVL43:
 424 00f2 0022     		movs	r2, #0
 425 00f4 6F4B     		ldr	r3, .L28+28
 426 00f6 FFF7FEFF 		bl	__aeabi_dmul
 427              	.LVL44:
 428 00fa 8046     		mov	r8, r0
 429 00fc 8946     		mov	r9, r1
 430 00fe D4F89000 		ldr	r0, [r4, #144]	@ float
 431 0102 FFF7FEFF 		bl	__aeabi_f2d
 432              	.LVL45:
 433 0106 0022     		movs	r2, #0
 434 0108 6A4B     		ldr	r3, .L28+28
 435 010a FFF7FEFF 		bl	__aeabi_dmul
 436              	.LVL46:
 437 010e 0446     		mov	r4, r0
 438 0110 0D46     		mov	r5, r1
 439 0112 4046     		mov	r0, r8
 440 0114 4946     		mov	r1, r9
 441 0116 FFF7FEFF 		bl	__aeabi_d2iz
 442              	.LVL47:
 443 011a 8046     		mov	r8, r0
 444 011c 3046     		mov	r0, r6
 445 011e 3946     		mov	r1, r7
 446 0120 FFF7FEFF 		bl	__aeabi_d2iz
ARM GAS  C:\Users\GONZAL~1\AppData\Local\Temp\ccdx4Qb3.s 			page 11


 447              	.LVL48:
 448 0124 0646     		mov	r6, r0
 449 0126 2046     		mov	r0, r4
 450 0128 2946     		mov	r1, r5
 451 012a FFF7FEFF 		bl	__aeabi_d2iz
 452              	.LVL49:
 453 012e 0090     		str	r0, [sp]
 454 0130 4346     		mov	r3, r8
 455 0132 3246     		mov	r2, r6
 456 0134 6049     		ldr	r1, .L28+32
 457 0136 02A8     		add	r0, sp, #8
 458 0138 FFF7FEFF 		bl	sprintf
 459              	.LVL50:
 460              	.L13:
 125:main.c        ****             }
 126:main.c        ****             if (PM1.control_mode == 3){
 461              		.loc 1 126 0
 462 013c 5A4B     		ldr	r3, .L28+16
 463 013e 1B78     		ldrb	r3, [r3]	@ zero_extendqisi2
 464 0140 032B     		cmp	r3, #3
 465 0142 33D1     		bne	.L14
 127:main.c        ****                 sprintf(TransmitBuffer, "*%d*%d*%d\r\n",(int)(PM1.tns_params[0]*100.0),(int)(PM1.tn
 466              		.loc 1 127 0
 467 0144 584C     		ldr	r4, .L28+16
 468 0146 D4F8A000 		ldr	r0, [r4, #160]	@ float
 469 014a FFF7FEFF 		bl	__aeabi_f2d
 470              	.LVL51:
 471 014e 0022     		movs	r2, #0
 472 0150 584B     		ldr	r3, .L28+28
 473 0152 FFF7FEFF 		bl	__aeabi_dmul
 474              	.LVL52:
 475 0156 0646     		mov	r6, r0
 476 0158 0F46     		mov	r7, r1
 477 015a D4F8A400 		ldr	r0, [r4, #164]	@ float
 478 015e FFF7FEFF 		bl	__aeabi_f2d
 479              	.LVL53:
 480 0162 0022     		movs	r2, #0
 481 0164 534B     		ldr	r3, .L28+28
 482 0166 FFF7FEFF 		bl	__aeabi_dmul
 483              	.LVL54:
 484 016a 8046     		mov	r8, r0
 485 016c 8946     		mov	r9, r1
 486 016e D4F8A800 		ldr	r0, [r4, #168]	@ float
 487 0172 FFF7FEFF 		bl	__aeabi_f2d
 488              	.LVL55:
 489 0176 0022     		movs	r2, #0
 490 0178 4E4B     		ldr	r3, .L28+28
 491 017a FFF7FEFF 		bl	__aeabi_dmul
 492              	.LVL56:
 493 017e 0446     		mov	r4, r0
 494 0180 0D46     		mov	r5, r1
 495 0182 4046     		mov	r0, r8
 496 0184 4946     		mov	r1, r9
 497 0186 FFF7FEFF 		bl	__aeabi_d2iz
 498              	.LVL57:
 499 018a 8046     		mov	r8, r0
 500 018c 3046     		mov	r0, r6
ARM GAS  C:\Users\GONZAL~1\AppData\Local\Temp\ccdx4Qb3.s 			page 12


 501 018e 3946     		mov	r1, r7
 502 0190 FFF7FEFF 		bl	__aeabi_d2iz
 503              	.LVL58:
 504 0194 0646     		mov	r6, r0
 505 0196 2046     		mov	r0, r4
 506 0198 2946     		mov	r1, r5
 507 019a FFF7FEFF 		bl	__aeabi_d2iz
 508              	.LVL59:
 509 019e 0090     		str	r0, [sp]
 510 01a0 4346     		mov	r3, r8
 511 01a2 3246     		mov	r2, r6
 512 01a4 4449     		ldr	r1, .L28+32
 513 01a6 02A8     		add	r0, sp, #8
 514 01a8 FFF7FEFF 		bl	sprintf
 515              	.LVL60:
 516              	.L14:
 128:main.c        ****             }
 129:main.c        ****             UART_PutString(TransmitBuffer);
 517              		.loc 1 129 0
 518 01ac 02A8     		add	r0, sp, #8
 519 01ae FFF7FEFF 		bl	UART_PutString
 520              	.LVL61:
 521              	.L11:
 130:main.c        ****         }
 131:main.c        ****         if(Ch == 'i'){
 522              		.loc 1 131 0
 523 01b2 3C4B     		ldr	r3, .L28+12
 524 01b4 1B78     		ldrb	r3, [r3]	@ zero_extendqisi2
 525 01b6 DBB2     		uxtb	r3, r3
 526 01b8 692B     		cmp	r3, #105
 527 01ba 03D1     		bne	.L10
 132:main.c        ****             _state_=1;
 528              		.loc 1 132 0
 529 01bc 0122     		movs	r2, #1
 530 01be 3F4B     		ldr	r3, .L28+36
 531 01c0 1A60     		str	r2, [r3]
 133:main.c        ****             break;
 532              		.loc 1 133 0
 533 01c2 04E0     		b	.L15
 534              	.L10:
 113:main.c        ****         Ch = UART_GetChar();
 535              		.loc 1 113 0
 536 01c4 3D4B     		ldr	r3, .L28+36
 537 01c6 1B68     		ldr	r3, [r3]
 538 01c8 002B     		cmp	r3, #0
 539 01ca 3FF42FAF 		beq	.L16
 540              	.L15:
 134:main.c        ****         }
 135:main.c        ****     }
 136:main.c        ****     CyGlobalIntEnable; /* Enable global interrupts. */
 541              		.loc 1 136 0
 542              		.syntax unified
 543              	@ 136 "main.c" 1
 544 01ce 62B6     		CPSIE   i
 545              	@ 0 "" 2
 546              		.thumb
 547              		.syntax unified
ARM GAS  C:\Users\GONZAL~1\AppData\Local\Temp\ccdx4Qb3.s 			page 13


 548              	.L26:
 137:main.c        ****     //PM1_BRAKEn_Write(0);
 138:main.c        ****     //M_PIN_SET(PM1_BRAKEn);
 139:main.c        ****     //PM1_BRAKEn_DR |= PM1_BRAKEn_MASK; //set BRAKEn pin port
 140:main.c        ****     //PM1_BRAKEn_DR &= ~PM1_BRAKEn_MASK; //clear BRAKEn pin port
 141:main.c        ****     
 142:main.c        ****     for(;;)
 143:main.c        ****     {
 144:main.c        ****         sprintf(TransmitBuffer, "& CUR: %d\tPID: %d\tRVT: %d\r\n",PM1.curr_spd,PM1.spdPID_out,(int)
 549              		.loc 1 144 0
 550 01d0 354A     		ldr	r2, .L28+16
 551 01d2 D2F8D810 		ldr	r1, [r2, #216]
 552 01d6 D2F8E030 		ldr	r3, [r2, #224]
 553 01da D2F8CC20 		ldr	r2, [r2, #204]
 554 01de 0091     		str	r1, [sp]
 555 01e0 3749     		ldr	r1, .L28+40
 556 01e2 02A8     		add	r0, sp, #8
 557 01e4 FFF7FEFF 		bl	sprintf
 558              	.LVL62:
 145:main.c        ****         UART_PutString(TransmitBuffer);
 559              		.loc 1 145 0
 560 01e8 02A8     		add	r0, sp, #8
 561 01ea FFF7FEFF 		bl	UART_PutString
 562              	.LVL63:
 146:main.c        ****         /* Check for PID update */
 147:main.c        ****         while(IsCharReady()){
 563              		.loc 1 147 0
 564 01ee 04E0     		b	.L18
 565              	.L19:
 148:main.c        ****             //UART_PutString("&IsCharReady\r\n");
 149:main.c        ****             if(GetRxStr()){
 566              		.loc 1 149 0
 567 01f0 FFF7FEFF 		bl	GetRxStr
 568              	.LVL64:
 569 01f4 08B1     		cbz	r0, .L18
 150:main.c        ****                 //UART_PutString("&GetRxStr\r\n");
 151:main.c        ****                 ProcessCommandMsg();
 570              		.loc 1 151 0
 571 01f6 FFF7FEFF 		bl	ProcessCommandMsg
 572              	.LVL65:
 573              	.L18:
 147:main.c        ****             //UART_PutString("&IsCharReady\r\n");
 574              		.loc 1 147 0
 575 01fa FFF7FEFF 		bl	IsCharReady
 576              	.LVL66:
 577 01fe 0028     		cmp	r0, #0
 578 0200 F6D1     		bne	.L19
 152:main.c        ****             }
 153:main.c        ****         }
 154:main.c        ****        
 155:main.c        ****         //_pVal = ADC_GetResult8();
 156:main.c        ****         _tVal = PM1.curr_tns;
 579              		.loc 1 156 0
 580 0202 294B     		ldr	r3, .L28+16
 581 0204 B3F9D020 		ldrsh	r2, [r3, #208]
 582 0208 2E4B     		ldr	r3, .L28+44
 583 020a 1A80     		strh	r2, [r3]	@ movhi
ARM GAS  C:\Users\GONZAL~1\AppData\Local\Temp\ccdx4Qb3.s 			page 14


 157:main.c        ****         
 158:main.c        ****         #ifdef TENDON_TENSION_CONTROL
 159:main.c        ****             /* rotor zero crossing checks */
 160:main.c        ****             if(actual_pos >= 0 && dir_state == 0){ 
 161:main.c        ****                 BRAKEn_Write(0);
 162:main.c        ****             }
 163:main.c        ****             else if(dir_state == 1){
 164:main.c        ****                 BRAKEn_Write(1);
 165:main.c        ****             }
 166:main.c        ****         #endif
 167:main.c        ****         
 168:main.c        ****         /* Check UART for any sent command */
 169:main.c        ****         Ch = UART_GetChar();
 584              		.loc 1 169 0
 585 020c FFF7FEFF 		bl	UART_GetChar
 586              	.LVL67:
 587 0210 244B     		ldr	r3, .L28+12
 588 0212 1870     		strb	r0, [r3]
 170:main.c        ****         
 171:main.c        ****         /* Send data based on last UART command */
 172:main.c        ****         if(SendSingleByte || ContinuouslySendData)
 589              		.loc 1 172 0
 590 0214 214B     		ldr	r3, .L28+4
 591 0216 1B78     		ldrb	r3, [r3]	@ zero_extendqisi2
 592 0218 13F0FF0F 		tst	r3, #255
 593 021c 04D1     		bne	.L20
 594              		.loc 1 172 0 is_stmt 0 discriminator 1
 595 021e 1E4B     		ldr	r3, .L28
 596 0220 1B78     		ldrb	r3, [r3]	@ zero_extendqisi2
 597 0222 13F0FF0F 		tst	r3, #255
 598 0226 2BD0     		beq	.L21
 599              	.L20:
 173:main.c        ****         {
 174:main.c        ****             /* Format ADC result for transmition */
 175:main.c        ****             if (PM1.control_mode == 0){
 600              		.loc 1 175 0 is_stmt 1
 601 0228 1F4B     		ldr	r3, .L28+16
 602 022a 1B78     		ldrb	r3, [r3]	@ zero_extendqisi2
 603 022c 13B3     		cbz	r3, .L22
 176:main.c        ****                 //sprintf(TransmitBuffer, "Ref: %d\tActual: %d\r\n",(int)_pVal,(int)actual_speed);
 177:main.c        ****             }
 178:main.c        ****             else if(PM1.control_mode == 1){
 604              		.loc 1 178 0
 605 022e 012B     		cmp	r3, #1
 606 0230 09D1     		bne	.L23
 179:main.c        ****                 sprintf(TransmitBuffer, "Ref: %d\tActual: %d\r\n",(int)PM1.ref_rvt,(int)PM1.curr_rv
 607              		.loc 1 179 0
 608 0232 1D4A     		ldr	r2, .L28+16
 609 0234 D2F8C830 		ldr	r3, [r2, #200]
 610 0238 D2F8D420 		ldr	r2, [r2, #212]
 611 023c 2249     		ldr	r1, .L28+48
 612 023e 02A8     		add	r0, sp, #8
 613 0240 FFF7FEFF 		bl	sprintf
 614              	.LVL68:
 615 0244 16E0     		b	.L22
 616              	.L23:
 180:main.c        ****             }
ARM GAS  C:\Users\GONZAL~1\AppData\Local\Temp\ccdx4Qb3.s 			page 15


 181:main.c        ****             else if(PM1.control_mode == 2){
 617              		.loc 1 181 0
 618 0246 022B     		cmp	r3, #2
 619 0248 09D1     		bne	.L24
 182:main.c        ****                 //sprintf(TransmitBuffer, "sRef: %d\tsActual: %d\tdirection: %d\tcounter: %d\r\n",(
 183:main.c        ****                 sprintf(TransmitBuffer, "Ref: %d\tActual: %d\r\n",(int)PM1.ref_spd,(int)PM1.curr_sp
 620              		.loc 1 183 0
 621 024a 174A     		ldr	r2, .L28+16
 622 024c D2F8CC30 		ldr	r3, [r2, #204]
 623 0250 D2F8D820 		ldr	r2, [r2, #216]
 624 0254 1C49     		ldr	r1, .L28+48
 625 0256 02A8     		add	r0, sp, #8
 626 0258 FFF7FEFF 		bl	sprintf
 627              	.LVL69:
 628 025c 0AE0     		b	.L22
 629              	.L24:
 184:main.c        ****             }
 185:main.c        ****             else if(PM1.control_mode == 3){
 630              		.loc 1 185 0
 631 025e 032B     		cmp	r3, #3
 632 0260 08D1     		bne	.L22
 186:main.c        ****                 sprintf(TransmitBuffer, "Ref: %d\tActual: %d\r\n",(int)PM1.ref_tns,(int)PM1.curr_tn
 633              		.loc 1 186 0
 634 0262 114A     		ldr	r2, .L28+16
 635 0264 D2F8D030 		ldr	r3, [r2, #208]
 636 0268 D2F8DC20 		ldr	r2, [r2, #220]
 637 026c 1649     		ldr	r1, .L28+48
 638 026e 02A8     		add	r0, sp, #8
 639 0270 FFF7FEFF 		bl	sprintf
 640              	.LVL70:
 641              	.L22:
 187:main.c        ****             }
 188:main.c        ****             /* Send out the data */
 189:main.c        ****             UART_PutString(TransmitBuffer);
 642              		.loc 1 189 0
 643 0274 02A8     		add	r0, sp, #8
 644 0276 FFF7FEFF 		bl	UART_PutString
 645              	.LVL71:
 190:main.c        ****             /* Reset the send once flag */
 191:main.c        ****             SendSingleByte = FALSE;
 646              		.loc 1 191 0
 647 027a 0022     		movs	r2, #0
 648 027c 074B     		ldr	r3, .L28+4
 649 027e 1A70     		strb	r2, [r3]
 650              	.L21:
 192:main.c        ****         }
 193:main.c        **** 
 194:main.c        ****         if(_uart_Reset)
 651              		.loc 1 194 0
 652 0280 124B     		ldr	r3, .L28+52
 653 0282 1B78     		ldrb	r3, [r3]	@ zero_extendqisi2
 654 0284 13F0FF0F 		tst	r3, #255
 655 0288 01D0     		beq	.L25
 195:main.c        ****         {
 196:main.c        ****             /* Reset the psoc using software */
 197:main.c        ****             CySoftwareReset();
 656              		.loc 1 197 0
ARM GAS  C:\Users\GONZAL~1\AppData\Local\Temp\ccdx4Qb3.s 			page 16


 657 028a FFF7FEFF 		bl	CySoftwareReset
 658              	.LVL72:
 659              	.L25:
 198:main.c        ****         }
 199:main.c        ****                 
 200:main.c        ****         CyDelay(25); // works at 40 Hz
 660              		.loc 1 200 0
 661 028e 1920     		movs	r0, #25
 662 0290 FFF7FEFF 		bl	CyDelay
 663              	.LVL73:
 201:main.c        ****     }
 664              		.loc 1 201 0
 665 0294 9CE7     		b	.L26
 666              	.L29:
 667 0296 00BF     		.align	2
 668              	.L28:
 669 0298 00000000 		.word	ContinuouslySendData
 670 029c 00000000 		.word	SendSingleByte
 671 02a0 00000000 		.word	SendEmulatedData
 672 02a4 00000000 		.word	Ch
 673 02a8 00000000 		.word	PM1
 674 02ac 00000000 		.word	.LC3
 675 02b0 18000000 		.word	.LC4
 676 02b4 00005940 		.word	1079574528
 677 02b8 20000000 		.word	.LC5
 678 02bc 00000000 		.word	_state_
 679 02c0 2C000000 		.word	.LC6
 680 02c4 00000000 		.word	_tVal
 681 02c8 48000000 		.word	.LC7
 682 02cc 00000000 		.word	_uart_Reset
 683              		.cfi_endproc
 684              	.LFE66:
 685              		.size	main, .-main
 686              		.comm	pulgar,568,4
 687              		.comm	PM2,284,4
 688              		.comm	PM1,284,4
 689              		.comm	_tVal,2,2
 690              		.comm	_state_,4,4
 691              		.comm	_uart_Reset,1,1
 692              		.comm	SendEmulatedData,1,1
 693              		.comm	SendSingleByte,1,1
 694              		.comm	ContinuouslySendData,1,1
 695              		.comm	Ch,1,1
 696              		.comm	PB,16,4
 697              		.comm	msg,16,4
 698              		.comm	RB,20,4
 699              		.comm	TS_array,4,4
 700              		.section	.rodata
 701              		.align	2
 702              		.set	.LANCHOR0,. + 0
 703              	.LC0:
 704 0000 0000C03F 		.word	1069547520
 705 0004 00000000 		.word	0
 706 0008 CDCC4C3D 		.word	1028443341
 707              	.LC1:
 708 000c 0000803F 		.word	1065353216
 709 0010 0AD7233E 		.word	1042536202
ARM GAS  C:\Users\GONZAL~1\AppData\Local\Temp\ccdx4Qb3.s 			page 17


 710 0014 00000000 		.word	0
 711              	.LC2:
 712 0018 0000003F 		.word	1056964608
 713 001c 0000003F 		.word	1056964608
 714 0020 0000003F 		.word	1056964608
 715              		.section	.rodata.str1.4,"aMS",%progbits,1
 716              		.align	2
 717              	.LC3:
 718 0000 2620494E 		.ascii	"& INIT CTRL_TYPE = %d\015\012\000"
 718      49542043 
 718      54524C5F 
 718      54595045 
 718      203D2025 
 719              	.LC4:
 720 0018 2125640D 		.ascii	"!%d\015\012\000"
 720      0A00
 721 001e 0000     		.space	2
 722              	.LC5:
 723 0020 2A25642A 		.ascii	"*%d*%d*%d\015\012\000"
 723      25642A25 
 723      640D0A00 
 724              	.LC6:
 725 002c 26204355 		.ascii	"& CUR: %d\011PID: %d\011RVT: %d\015\012\000"
 725      523A2025 
 725      64095049 
 725      443A2025 
 725      64095256 
 726              	.LC7:
 727 0048 5265663A 		.ascii	"Ref: %d\011Actual: %d\015\012\000"
 727      20256409 
 727      41637475 
 727      616C3A20 
 727      25640D0A 
 728              		.text
 729              	.Letext0:
 730              		.file 2 "c:\\program files (x86)\\cypress\\psoc creator\\4.1\\psoc creator\\import\\gnu\\arm\\5.4.
 731              		.file 3 "c:\\program files (x86)\\cypress\\psoc creator\\4.1\\psoc creator\\import\\gnu\\arm\\5.4.
 732              		.file 4 "Generated_Source\\PSoC5/cytypes.h"
 733              		.file 5 "pid.h"
 734              		.file 6 "motor.h"
 735              		.file 7 "structs.h"
 736              		.file 8 "myUART.h"
 737              		.file 9 "global.h"
 738              		.file 10 "Generated_Source\\PSoC5/core_cm3.h"
 739              		.file 11 "functions.h"
 740              		.file 12 "Generated_Source\\PSoC5/ADC.h"
 741              		.file 13 "Generated_Source\\PSoC5/ADC_TS.h"
 742              		.file 14 "Generated_Source\\PSoC5/PM1_HA_TIMER.h"
 743              		.file 15 "Generated_Source\\PSoC5/PM1_DirCounter.h"
 744              		.file 16 "Generated_Source\\PSoC5/PM1_SPD_VDAC8.h"
 745              		.file 17 "Generated_Source\\PSoC5/PM2_HA_TIMER.h"
 746              		.file 18 "Generated_Source\\PSoC5/PM2_DirCounter.h"
 747              		.file 19 "Generated_Source\\PSoC5/PM2_SPD_VDAC8.h"
 748              		.file 20 "Generated_Source\\PSoC5/UART.h"
 749              		.file 21 "Generated_Source\\PSoC5/RxInt.h"
 750              		.file 22 "Generated_Source\\PSoC5/SPD_COMMAND_ISR.h"
 751              		.file 23 "Generated_Source\\PSoC5/RVT_COMMAND_ISR.h"
ARM GAS  C:\Users\GONZAL~1\AppData\Local\Temp\ccdx4Qb3.s 			page 18


 752              		.file 24 "Generated_Source\\PSoC5/TNS_COMMAND_ISR.h"
 753              		.file 25 "Generated_Source\\PSoC5/READ_RVT_ISR.h"
 754              		.file 26 "Generated_Source\\PSoC5/CHECK_MOVEMENT_ISR.h"
 755              		.file 27 "Generated_Source\\PSoC5/PM1_HA_ISR.h"
 756              		.file 28 "Generated_Source\\PSoC5/PM2_HA_ISR.h"
 757              		.file 29 "Generated_Source\\PSoC5/CyLib.h"
 758              		.file 30 "c:\\program files (x86)\\cypress\\psoc creator\\4.1\\psoc creator\\import\\gnu\\arm\\5.4