ARM GAS  C:\Users\GONZAL~1\AppData\Local\Temp\ccry0Twg.s 			page 1


   1              		.syntax unified
   2              		.cpu cortex-m3
   3              		.fpu softvfp
   4              		.eabi_attribute 20, 1
   5              		.eabi_attribute 21, 1
   6              		.eabi_attribute 23, 3
   7              		.eabi_attribute 24, 1
   8              		.eabi_attribute 25, 1
   9              		.eabi_attribute 26, 1
  10              		.eabi_attribute 30, 1
  11              		.eabi_attribute 34, 1
  12              		.eabi_attribute 18, 4
  13              		.thumb
  14              		.syntax unified
  15              		.file	"pid.c"
  16              		.text
  17              	.Ltext0:
  18              		.cfi_sections	.debug_frame
  19              		.global	__aeabi_fmul
  20              		.global	__aeabi_f2iz
  21              		.section	.text.PID_init,"ax",%progbits
  22              		.align	2
  23              		.global	PID_init
  24              		.thumb
  25              		.thumb_func
  26              		.type	PID_init, %function
  27              	PID_init:
  28              	.LFB0:
  29              		.file 1 "pid.c"
   1:pid.c         **** /* ========================================
   2:pid.c         ****  *
   3:pid.c         ****  * Copyright YOUR COMPANY, THE YEAR
   4:pid.c         ****  * All Rights Reserved
   5:pid.c         ****  * UNPUBLISHED, LICENSED SOFTWARE.
   6:pid.c         ****  *
   7:pid.c         ****  * CONFIDENTIAL AND PROPRIETARY INFORMATION
   8:pid.c         ****  * WHICH IS THE PROPERTY OF your company.
   9:pid.c         ****  *
  10:pid.c         ****  * ========================================
  11:pid.c         **** */
  12:pid.c         **** #include "pid.h"
  13:pid.c         **** 
  14:pid.c         **** void PID_init(PID_t* pid, float p, float i, float d)
  15:pid.c         **** {
  30              		.loc 1 15 0
  31              		.cfi_startproc
  32              		@ args = 0, pretend = 0, frame = 0
  33              		@ frame_needed = 0, uses_anonymous_args = 0
  34              	.LVL0:
  35 0000 70B5     		push	{r4, r5, r6, lr}
  36              		.cfi_def_cfa_offset 16
  37              		.cfi_offset 4, -16
  38              		.cfi_offset 5, -12
  39              		.cfi_offset 6, -8
  40              		.cfi_offset 14, -4
  41 0002 0446     		mov	r4, r0
  42 0004 0846     		mov	r0, r1
ARM GAS  C:\Users\GONZAL~1\AppData\Local\Temp\ccry0Twg.s 			page 2


  43              	.LVL1:
  44 0006 1646     		mov	r6, r2
  45 0008 1D46     		mov	r5, r3
  16:pid.c         ****     pid->kP = (int32_t)(p * FLOAT_TO_INT_SCALE);
  46              		.loc 1 16 0
  47 000a 4FF08B41 		mov	r1, #1166016512
  48              	.LVL2:
  49 000e FFF7FEFF 		bl	__aeabi_fmul
  50              	.LVL3:
  51 0012 FFF7FEFF 		bl	__aeabi_f2iz
  52              	.LVL4:
  53 0016 2060     		str	r0, [r4]
  17:pid.c         ****     pid->kI = (int32_t)(i * FLOAT_TO_INT_SCALE);
  54              		.loc 1 17 0
  55 0018 4FF08B41 		mov	r1, #1166016512
  56 001c 3046     		mov	r0, r6
  57 001e FFF7FEFF 		bl	__aeabi_fmul
  58              	.LVL5:
  59 0022 FFF7FEFF 		bl	__aeabi_f2iz
  60              	.LVL6:
  61 0026 6060     		str	r0, [r4, #4]
  18:pid.c         ****     pid->kD = (int32_t)(d * FLOAT_TO_INT_SCALE);
  62              		.loc 1 18 0
  63 0028 4FF08B41 		mov	r1, #1166016512
  64 002c 2846     		mov	r0, r5
  65 002e FFF7FEFF 		bl	__aeabi_fmul
  66              	.LVL7:
  67 0032 FFF7FEFF 		bl	__aeabi_f2iz
  68              	.LVL8:
  69 0036 A060     		str	r0, [r4, #8]
  19:pid.c         ****     pid->refVal = 0;
  70              		.loc 1 19 0
  71 0038 0023     		movs	r3, #0
  72 003a E360     		str	r3, [r4, #12]
  20:pid.c         ****     pid->inputValue = 0;
  73              		.loc 1 20 0
  74 003c 2361     		str	r3, [r4, #16]
  21:pid.c         ****     pid->iTerm = 0;
  75              		.loc 1 21 0
  76 003e A361     		str	r3, [r4, #24]
  22:pid.c         ****     pid->lastValue = 0;
  77              		.loc 1 22 0
  78 0040 6361     		str	r3, [r4, #20]
  79 0042 70BD     		pop	{r4, r5, r6, pc}
  80              		.cfi_endproc
  81              	.LFE0:
  82              		.size	PID_init, .-PID_init
  83              		.section	.text.PID_setCoeffs,"ax",%progbits
  84              		.align	2
  85              		.global	PID_setCoeffs
  86              		.thumb
  87              		.thumb_func
  88              		.type	PID_setCoeffs, %function
  89              	PID_setCoeffs:
  90              	.LFB1:
  23:pid.c         **** }
  24:pid.c         **** 
ARM GAS  C:\Users\GONZAL~1\AppData\Local\Temp\ccry0Twg.s 			page 3


  25:pid.c         **** void PID_setCoeffs(PID_t* pid, float p, float i, float d)
  26:pid.c         **** {
  91              		.loc 1 26 0
  92              		.cfi_startproc
  93              		@ args = 0, pretend = 0, frame = 0
  94              		@ frame_needed = 0, uses_anonymous_args = 0
  95              	.LVL9:
  96 0000 70B5     		push	{r4, r5, r6, lr}
  97              		.cfi_def_cfa_offset 16
  98              		.cfi_offset 4, -16
  99              		.cfi_offset 5, -12
 100              		.cfi_offset 6, -8
 101              		.cfi_offset 14, -4
 102 0002 0446     		mov	r4, r0
 103 0004 0846     		mov	r0, r1
 104              	.LVL10:
 105 0006 1646     		mov	r6, r2
 106 0008 1D46     		mov	r5, r3
  27:pid.c         ****     pid->kP = (int32_t)(p * FLOAT_TO_INT_SCALE);
 107              		.loc 1 27 0
 108 000a 4FF08B41 		mov	r1, #1166016512
 109              	.LVL11:
 110 000e FFF7FEFF 		bl	__aeabi_fmul
 111              	.LVL12:
 112 0012 FFF7FEFF 		bl	__aeabi_f2iz
 113              	.LVL13:
 114 0016 2060     		str	r0, [r4]
  28:pid.c         ****     pid->kI = (int32_t)(i * FLOAT_TO_INT_SCALE);
 115              		.loc 1 28 0
 116 0018 4FF08B41 		mov	r1, #1166016512
 117 001c 3046     		mov	r0, r6
 118 001e FFF7FEFF 		bl	__aeabi_fmul
 119              	.LVL14:
 120 0022 FFF7FEFF 		bl	__aeabi_f2iz
 121              	.LVL15:
 122 0026 6060     		str	r0, [r4, #4]
  29:pid.c         ****     pid->kD = (int32_t)(d * FLOAT_TO_INT_SCALE);
 123              		.loc 1 29 0
 124 0028 4FF08B41 		mov	r1, #1166016512
 125 002c 2846     		mov	r0, r5
 126 002e FFF7FEFF 		bl	__aeabi_fmul
 127              	.LVL16:
 128 0032 FFF7FEFF 		bl	__aeabi_f2iz
 129              	.LVL17:
 130 0036 A060     		str	r0, [r4, #8]
 131 0038 70BD     		pop	{r4, r5, r6, pc}
 132              		.cfi_endproc
 133              	.LFE1:
 134              		.size	PID_setCoeffs, .-PID_setCoeffs
 135 003a 00BF     		.section	.text.PID_setRef,"ax",%progbits
 136              		.align	2
 137              		.global	PID_setRef
 138              		.thumb
 139              		.thumb_func
 140              		.type	PID_setRef, %function
 141              	PID_setRef:
 142              	.LFB2:
ARM GAS  C:\Users\GONZAL~1\AppData\Local\Temp\ccry0Twg.s 			page 4


  30:pid.c         **** }
  31:pid.c         **** 
  32:pid.c         **** void PID_setRef(PID_t* pid, int32_t pnt)
  33:pid.c         **** {
 143              		.loc 1 33 0
 144              		.cfi_startproc
 145              		@ args = 0, pretend = 0, frame = 0
 146              		@ frame_needed = 0, uses_anonymous_args = 0
 147              		@ link register save eliminated.
 148              	.LVL18:
  34:pid.c         ****     pid->refVal = pnt;
 149              		.loc 1 34 0
 150 0000 C160     		str	r1, [r0, #12]
 151 0002 7047     		bx	lr
 152              		.cfi_endproc
 153              	.LFE2:
 154              		.size	PID_setRef, .-PID_setRef
 155              		.section	.text.PID_setMinValue,"ax",%progbits
 156              		.align	2
 157              		.global	PID_setMinValue
 158              		.thumb
 159              		.thumb_func
 160              		.type	PID_setMinValue, %function
 161              	PID_setMinValue:
 162              	.LFB3:
  35:pid.c         **** }
  36:pid.c         **** void PID_setMinValue(PID_t* pid, int32_t mn)
  37:pid.c         **** {
 163              		.loc 1 37 0
 164              		.cfi_startproc
 165              		@ args = 0, pretend = 0, frame = 0
 166              		@ frame_needed = 0, uses_anonymous_args = 0
 167              		@ link register save eliminated.
 168              	.LVL19:
  38:pid.c         ****     pid->minValue = mn;
 169              		.loc 1 38 0
 170 0000 C161     		str	r1, [r0, #28]
  39:pid.c         ****     pid->scaledMin = mn * FLOAT_TO_INT_SCALE;
 171              		.loc 1 39 0
 172 0002 0903     		lsls	r1, r1, #12
 173              	.LVL20:
 174 0004 4162     		str	r1, [r0, #36]
 175 0006 7047     		bx	lr
 176              		.cfi_endproc
 177              	.LFE3:
 178              		.size	PID_setMinValue, .-PID_setMinValue
 179              		.section	.text.PID_setMaxValue,"ax",%progbits
 180              		.align	2
 181              		.global	PID_setMaxValue
 182              		.thumb
 183              		.thumb_func
 184              		.type	PID_setMaxValue, %function
 185              	PID_setMaxValue:
 186              	.LFB4:
  40:pid.c         **** }
  41:pid.c         **** 
  42:pid.c         **** void PID_setMaxValue(PID_t* pid, int32_t mx)
ARM GAS  C:\Users\GONZAL~1\AppData\Local\Temp\ccry0Twg.s 			page 5


  43:pid.c         **** {
 187              		.loc 1 43 0
 188              		.cfi_startproc
 189              		@ args = 0, pretend = 0, frame = 0
 190              		@ frame_needed = 0, uses_anonymous_args = 0
 191              		@ link register save eliminated.
 192              	.LVL21:
  44:pid.c         ****     pid->maxValue = mx;
 193              		.loc 1 44 0
 194 0000 0162     		str	r1, [r0, #32]
  45:pid.c         ****     pid->scaledMax = mx * FLOAT_TO_INT_SCALE;
 195              		.loc 1 45 0
 196 0002 0903     		lsls	r1, r1, #12
 197              	.LVL22:
 198 0004 8162     		str	r1, [r0, #40]
 199 0006 7047     		bx	lr
 200              		.cfi_endproc
 201              	.LFE4:
 202              		.size	PID_setMaxValue, .-PID_setMaxValue
 203              		.section	.text.PID_calculatePID,"ax",%progbits
 204              		.align	2
 205              		.global	PID_calculatePID
 206              		.thumb
 207              		.thumb_func
 208              		.type	PID_calculatePID, %function
 209              	PID_calculatePID:
 210              	.LFB5:
  46:pid.c         **** }
  47:pid.c         **** 
  48:pid.c         **** int32_t PID_calculatePID(PID_t* pid, int32_t input)
  49:pid.c         **** {
 211              		.loc 1 49 0
 212              		.cfi_startproc
 213              		@ args = 0, pretend = 0, frame = 0
 214              		@ frame_needed = 0, uses_anonymous_args = 0
 215              		@ link register save eliminated.
 216              	.LVL23:
 217 0000 30B4     		push	{r4, r5}
 218              		.cfi_def_cfa_offset 8
 219              		.cfi_offset 4, -8
 220              		.cfi_offset 5, -4
 221 0002 0346     		mov	r3, r0
  50:pid.c         ****     int32_t output, error, diffInput;
  51:pid.c         **** 
  52:pid.c         ****     pid->inputValue = input;
 222              		.loc 1 52 0
 223 0004 0161     		str	r1, [r0, #16]
  53:pid.c         ****     error = pid->refVal - pid->inputValue;
 224              		.loc 1 53 0
 225 0006 C468     		ldr	r4, [r0, #12]
 226 0008 641A     		subs	r4, r4, r1
 227              	.LVL24:
  54:pid.c         ****     pid->iTerm += (pid->kI * error); //remember, all k* variables are scaled up
 228              		.loc 1 54 0
 229 000a 4268     		ldr	r2, [r0, #4]
 230 000c 8069     		ldr	r0, [r0, #24]
 231              	.LVL25:
ARM GAS  C:\Users\GONZAL~1\AppData\Local\Temp\ccry0Twg.s 			page 6


 232 000e 02FB0402 		mla	r2, r2, r4, r0
 233 0012 9A61     		str	r2, [r3, #24]
  55:pid.c         **** 
  56:pid.c         ****     if (pid->iTerm > pid->scaledMax) pid->iTerm = pid->scaledMax;
 234              		.loc 1 56 0
 235 0014 986A     		ldr	r0, [r3, #40]
 236 0016 8242     		cmp	r2, r0
 237 0018 00DD     		ble	.L9
 238              		.loc 1 56 0 is_stmt 0 discriminator 1
 239 001a 9861     		str	r0, [r3, #24]
 240              	.L9:
  57:pid.c         ****     if (pid->iTerm < pid->scaledMin) pid->iTerm = pid->scaledMin;
 241              		.loc 1 57 0 is_stmt 1
 242 001c 9869     		ldr	r0, [r3, #24]
 243 001e 5A6A     		ldr	r2, [r3, #36]
 244 0020 9042     		cmp	r0, r2
 245 0022 00DA     		bge	.L10
 246              		.loc 1 57 0 is_stmt 0 discriminator 1
 247 0024 9A61     		str	r2, [r3, #24]
 248              	.L10:
  58:pid.c         **** 
  59:pid.c         ****     diffInput = (pid->inputValue - pid->lastValue);
 249              		.loc 1 59 0 is_stmt 1
 250 0026 5A69     		ldr	r2, [r3, #20]
 251 0028 881A     		subs	r0, r1, r2
 252              	.LVL26:
  60:pid.c         **** 
  61:pid.c         ****     //it's traditional to try to avoid using division in microcontrollers but the
  62:pid.c         ****     //SAM3X has a very fast hardware divider anyway. Besides, FLOAT_TO_INT_SCALE is
  63:pid.c         ****     //an even power of 2 so it can be done via a shift which is even faster.
  64:pid.c         ****     output = ((pid->kP * error) + (pid->iTerm) - (pid->kD * diffInput)) / FLOAT_TO_INT_SCALE;
 253              		.loc 1 64 0
 254 002a 1D68     		ldr	r5, [r3]
 255 002c 9A69     		ldr	r2, [r3, #24]
 256 002e 05FB0424 		mla	r4, r5, r4, r2
 257              	.LVL27:
 258 0032 9A68     		ldr	r2, [r3, #8]
 259 0034 02FB1042 		mls	r2, r2, r0, r4
 260 0038 002A     		cmp	r2, #0
 261 003a 01DA     		bge	.L11
 262 003c 02F6FF72 		addw	r2, r2, #4095
 263              	.L11:
 264 0040 1213     		asrs	r2, r2, #12
 265              	.LVL28:
  65:pid.c         **** 
  66:pid.c         ****     if (output > pid->maxValue) output = pid->maxValue;
 266              		.loc 1 66 0
 267 0042 1C6A     		ldr	r4, [r3, #32]
 268 0044 A242     		cmp	r2, r4
 269 0046 00DC     		bgt	.L12
  64:pid.c         **** 
 270              		.loc 1 64 0
 271 0048 1446     		mov	r4, r2
 272              	.L12:
 273              	.LVL29:
  67:pid.c         ****     if (output < pid->minValue) output = pid->minValue;
 274              		.loc 1 67 0
ARM GAS  C:\Users\GONZAL~1\AppData\Local\Temp\ccry0Twg.s 			page 7


 275 004a D869     		ldr	r0, [r3, #28]
 276              	.LVL30:
 277 004c 8442     		cmp	r4, r0
 278 004e 00DB     		blt	.L13
 279 0050 2046     		mov	r0, r4
 280              	.L13:
 281              	.LVL31:
  68:pid.c         **** 
  69:pid.c         ****     pid->lastValue = pid->inputValue;
 282              		.loc 1 69 0
 283 0052 5961     		str	r1, [r3, #20]
 284              	.LVL32:
  70:pid.c         **** 
  71:pid.c         ****     return output;
  72:pid.c         **** }
 285              		.loc 1 72 0
 286 0054 30BC     		pop	{r4, r5}
 287              		.cfi_restore 5
 288              		.cfi_restore 4
 289              		.cfi_def_cfa_offset 0
 290 0056 7047     		bx	lr
 291              		.cfi_endproc
 292              	.LFE5:
 293              		.size	PID_calculatePID, .-PID_calculatePID
 294              		.text
 295              	.Letext0:
 296              		.file 2 "c:\\program files (x86)\\cypress\\psoc creator\\4.1\\psoc creator\\import\\gnu\\arm\\5.4.
 297              		.file 3 "c:\\program files (x86)\\cypress\\psoc creator\\4.1\\psoc creator\\import\\gnu\\arm\\5.4.
 298              		.file 4 "pid.h"