ARM GAS  C:\Users\GONZAL~1\AppData\Local\Temp\ccoKXXrf.s 			page 1


   1              		.syntax unified
   2              		.cpu cortex-m3
   3              		.fpu softvfp
   4              		.eabi_attribute 20, 1
   5              		.eabi_attribute 21, 1
   6              		.eabi_attribute 23, 3
   7              		.eabi_attribute 24, 1
   8              		.eabi_attribute 25, 1
   9              		.eabi_attribute 26, 1
  10              		.eabi_attribute 30, 1
  11              		.eabi_attribute 34, 1
  12              		.eabi_attribute 18, 4
  13              		.thumb
  14              		.syntax unified
  15              		.file	"tensor_control_isr.c"
  16              		.text
  17              	.Ltext0:
  18              		.cfi_sections	.debug_frame
  19              		.section	.text.tensor_control_isr_Interrupt,"ax",%progbits
  20              		.align	2
  21              		.global	tensor_control_isr_Interrupt
  22              		.thumb
  23              		.thumb_func
  24              		.type	tensor_control_isr_Interrupt, %function
  25              	tensor_control_isr_Interrupt:
  26              	.LFB67:
  27              		.file 1 "tensor_control_isr.c"
   1:tensor_control_isr.c **** /*******************************************************************************
   2:tensor_control_isr.c **** * File Name: tensor_control_isr.c  
   3:tensor_control_isr.c **** * Version 1.70
   4:tensor_control_isr.c **** *
   5:tensor_control_isr.c **** *  Description:
   6:tensor_control_isr.c **** *   API for controlling the state of an interrupt.
   7:tensor_control_isr.c **** *
   8:tensor_control_isr.c **** *
   9:tensor_control_isr.c **** *  Note:
  10:tensor_control_isr.c **** *
  11:tensor_control_isr.c **** ********************************************************************************
  12:tensor_control_isr.c **** * Copyright 2008-2015, Cypress Semiconductor Corporation.  All rights reserved.
  13:tensor_control_isr.c **** * You may use this file only in accordance with the license, terms, conditions, 
  14:tensor_control_isr.c **** * disclaimers, and limitations in the end user license agreement accompanying 
  15:tensor_control_isr.c **** * the software package with which this file was provided.
  16:tensor_control_isr.c **** *******************************************************************************/
  17:tensor_control_isr.c **** 
  18:tensor_control_isr.c **** 
  19:tensor_control_isr.c **** #include <cydevice_trm.h>
  20:tensor_control_isr.c **** #include <CyLib.h>
  21:tensor_control_isr.c **** #include <tensor_control_isr.h>
  22:tensor_control_isr.c **** #include "cyapicallbacks.h"
  23:tensor_control_isr.c **** 
  24:tensor_control_isr.c **** #if !defined(tensor_control_isr__REMOVED) /* Check for removal by optimization */
  25:tensor_control_isr.c **** 
  26:tensor_control_isr.c **** /*******************************************************************************
  27:tensor_control_isr.c **** *  Place your includes, defines and code here 
  28:tensor_control_isr.c **** ********************************************************************************/
  29:tensor_control_isr.c **** /* `#START tensor_control_isr_intc` */
  30:tensor_control_isr.c **** 
ARM GAS  C:\Users\GONZAL~1\AppData\Local\Temp\ccoKXXrf.s 			page 2


  31:tensor_control_isr.c **** #include <global.h>
  32:tensor_control_isr.c **** #include <stdlib.h>
  33:tensor_control_isr.c ****     
  34:tensor_control_isr.c **** volatile int16_t _tVal;
  35:tensor_control_isr.c **** volatile int32_t actual_tension;
  36:tensor_control_isr.c **** volatile int32_t tension_ref;
  37:tensor_control_isr.c **** int32_t tension_pid_output;
  38:tensor_control_isr.c ****     
  39:tensor_control_isr.c **** PID_t tens_pid_;
  40:tensor_control_isr.c ****    
  41:tensor_control_isr.c **** volatile int32_t debug;
  42:tensor_control_isr.c **** volatile int32_t current_pos;
  43:tensor_control_isr.c ****     
  44:tensor_control_isr.c **** /* `#END` */
  45:tensor_control_isr.c **** 
  46:tensor_control_isr.c **** #ifndef CYINT_IRQ_BASE
  47:tensor_control_isr.c **** #define CYINT_IRQ_BASE      16
  48:tensor_control_isr.c **** #endif /* CYINT_IRQ_BASE */
  49:tensor_control_isr.c **** #ifndef CYINT_VECT_TABLE
  50:tensor_control_isr.c **** #define CYINT_VECT_TABLE    ((cyisraddress **) CYREG_NVIC_VECT_OFFSET)
  51:tensor_control_isr.c **** #endif /* CYINT_VECT_TABLE */
  52:tensor_control_isr.c **** 
  53:tensor_control_isr.c **** /* Declared in startup, used to set unused interrupts to. */
  54:tensor_control_isr.c **** CY_ISR_PROTO(IntDefaultHandler);
  55:tensor_control_isr.c **** 
  56:tensor_control_isr.c **** 
  57:tensor_control_isr.c **** /*******************************************************************************
  58:tensor_control_isr.c **** * Function Name: tensor_control_isr_Start
  59:tensor_control_isr.c **** ********************************************************************************
  60:tensor_control_isr.c **** *
  61:tensor_control_isr.c **** * Summary:
  62:tensor_control_isr.c **** *  Set up the interrupt and enable it. This function disables the interrupt, 
  63:tensor_control_isr.c **** *  sets the default interrupt vector, sets the priority from the value in the
  64:tensor_control_isr.c **** *  Design Wide Resources Interrupt Editor, then enables the interrupt to the 
  65:tensor_control_isr.c **** *  interrupt controller.
  66:tensor_control_isr.c **** *
  67:tensor_control_isr.c **** * Parameters:  
  68:tensor_control_isr.c **** *   None
  69:tensor_control_isr.c **** *
  70:tensor_control_isr.c **** * Return:
  71:tensor_control_isr.c **** *   None
  72:tensor_control_isr.c **** *
  73:tensor_control_isr.c **** *******************************************************************************/
  74:tensor_control_isr.c **** void tensor_control_isr_Start(void)
  75:tensor_control_isr.c **** {
  76:tensor_control_isr.c ****     /* For all we know the interrupt is active. */
  77:tensor_control_isr.c ****     tensor_control_isr_Disable();
  78:tensor_control_isr.c **** 
  79:tensor_control_isr.c ****     /* Set the ISR to point to the tensor_control_isr Interrupt. */
  80:tensor_control_isr.c ****     tensor_control_isr_SetVector(&tensor_control_isr_Interrupt);
  81:tensor_control_isr.c **** 
  82:tensor_control_isr.c ****     /* Set the priority. */
  83:tensor_control_isr.c ****     tensor_control_isr_SetPriority((uint8)tensor_control_isr_INTC_PRIOR_NUMBER);
  84:tensor_control_isr.c **** 
  85:tensor_control_isr.c ****     /* Enable it. */
  86:tensor_control_isr.c ****     tensor_control_isr_Enable();
  87:tensor_control_isr.c **** }
ARM GAS  C:\Users\GONZAL~1\AppData\Local\Temp\ccoKXXrf.s 			page 3


  88:tensor_control_isr.c **** 
  89:tensor_control_isr.c **** 
  90:tensor_control_isr.c **** /*******************************************************************************
  91:tensor_control_isr.c **** * Function Name: tensor_control_isr_StartEx
  92:tensor_control_isr.c **** ********************************************************************************
  93:tensor_control_isr.c **** *
  94:tensor_control_isr.c **** * Summary:
  95:tensor_control_isr.c **** *  Sets up the interrupt and enables it. This function disables the interrupt,
  96:tensor_control_isr.c **** *  sets the interrupt vector based on the address passed in, sets the priority 
  97:tensor_control_isr.c **** *  from the value in the Design Wide Resources Interrupt Editor, then enables 
  98:tensor_control_isr.c **** *  the interrupt to the interrupt controller.
  99:tensor_control_isr.c **** *  
 100:tensor_control_isr.c **** *  When defining ISR functions, the CY_ISR and CY_ISR_PROTO macros should be 
 101:tensor_control_isr.c **** *  used to provide consistent definition across compilers:
 102:tensor_control_isr.c **** *  
 103:tensor_control_isr.c **** *  Function definition example:
 104:tensor_control_isr.c **** *   CY_ISR(MyISR)
 105:tensor_control_isr.c **** *   {
 106:tensor_control_isr.c **** *   }
 107:tensor_control_isr.c **** *   Function prototype example:
 108:tensor_control_isr.c **** *   CY_ISR_PROTO(MyISR);
 109:tensor_control_isr.c **** *
 110:tensor_control_isr.c **** * Parameters:  
 111:tensor_control_isr.c **** *   address: Address of the ISR to set in the interrupt vector table.
 112:tensor_control_isr.c **** *
 113:tensor_control_isr.c **** * Return:
 114:tensor_control_isr.c **** *   None
 115:tensor_control_isr.c **** *
 116:tensor_control_isr.c **** *******************************************************************************/
 117:tensor_control_isr.c **** void tensor_control_isr_StartEx(cyisraddress address)
 118:tensor_control_isr.c **** {
 119:tensor_control_isr.c ****     /* For all we know the interrupt is active. */
 120:tensor_control_isr.c ****     tensor_control_isr_Disable();
 121:tensor_control_isr.c **** 
 122:tensor_control_isr.c ****     /* Set the ISR to point to the tensor_control_isr Interrupt. */
 123:tensor_control_isr.c ****     tensor_control_isr_SetVector(address);
 124:tensor_control_isr.c **** 
 125:tensor_control_isr.c ****     /* Set the priority. */
 126:tensor_control_isr.c ****     tensor_control_isr_SetPriority((uint8)tensor_control_isr_INTC_PRIOR_NUMBER);
 127:tensor_control_isr.c **** 
 128:tensor_control_isr.c ****     /* Enable it. */
 129:tensor_control_isr.c ****     tensor_control_isr_Enable();
 130:tensor_control_isr.c **** }
 131:tensor_control_isr.c **** 
 132:tensor_control_isr.c **** 
 133:tensor_control_isr.c **** /*******************************************************************************
 134:tensor_control_isr.c **** * Function Name: tensor_control_isr_Stop
 135:tensor_control_isr.c **** ********************************************************************************
 136:tensor_control_isr.c **** *
 137:tensor_control_isr.c **** * Summary:
 138:tensor_control_isr.c **** *   Disables and removes the interrupt.
 139:tensor_control_isr.c **** *
 140:tensor_control_isr.c **** * Parameters:  
 141:tensor_control_isr.c **** *   None
 142:tensor_control_isr.c **** *
 143:tensor_control_isr.c **** * Return:
 144:tensor_control_isr.c **** *   None
ARM GAS  C:\Users\GONZAL~1\AppData\Local\Temp\ccoKXXrf.s 			page 4


 145:tensor_control_isr.c **** *
 146:tensor_control_isr.c **** *******************************************************************************/
 147:tensor_control_isr.c **** void tensor_control_isr_Stop(void)
 148:tensor_control_isr.c **** {
 149:tensor_control_isr.c ****     /* Disable this interrupt. */
 150:tensor_control_isr.c ****     tensor_control_isr_Disable();
 151:tensor_control_isr.c **** 
 152:tensor_control_isr.c ****     /* Set the ISR to point to the passive one. */
 153:tensor_control_isr.c ****     tensor_control_isr_SetVector(&IntDefaultHandler);
 154:tensor_control_isr.c **** }
 155:tensor_control_isr.c **** 
 156:tensor_control_isr.c **** 
 157:tensor_control_isr.c **** /*******************************************************************************
 158:tensor_control_isr.c **** * Function Name: tensor_control_isr_Interrupt
 159:tensor_control_isr.c **** ********************************************************************************
 160:tensor_control_isr.c **** *
 161:tensor_control_isr.c **** * Summary:
 162:tensor_control_isr.c **** *   The default Interrupt Service Routine for tensor_control_isr.
 163:tensor_control_isr.c **** *
 164:tensor_control_isr.c **** *   Add custom code between the coments to keep the next version of this file
 165:tensor_control_isr.c **** *   from over writting your code.
 166:tensor_control_isr.c **** *
 167:tensor_control_isr.c **** * Parameters:  
 168:tensor_control_isr.c **** *
 169:tensor_control_isr.c **** * Return:
 170:tensor_control_isr.c **** *   None
 171:tensor_control_isr.c **** *
 172:tensor_control_isr.c **** *******************************************************************************/
 173:tensor_control_isr.c **** CY_ISR(tensor_control_isr_Interrupt)
 174:tensor_control_isr.c **** {
  28              		.loc 1 174 0
  29              		.cfi_startproc
  30              		@ args = 0, pretend = 0, frame = 0
  31              		@ frame_needed = 0, uses_anonymous_args = 0
  32 0000 38B5     		push	{r3, r4, r5, lr}
  33              		.cfi_def_cfa_offset 16
  34              		.cfi_offset 3, -16
  35              		.cfi_offset 4, -12
  36              		.cfi_offset 5, -8
  37              		.cfi_offset 14, -4
 175:tensor_control_isr.c ****     #ifdef tensor_control_isr_INTERRUPT_INTERRUPT_CALLBACK
 176:tensor_control_isr.c ****         tensor_control_isr_Interrupt_InterruptCallback();
 177:tensor_control_isr.c ****     #endif /* tensor_control_isr_INTERRUPT_INTERRUPT_CALLBACK */ 
 178:tensor_control_isr.c **** 
 179:tensor_control_isr.c ****     /*  Place your Interrupt code here. */
 180:tensor_control_isr.c ****     /* `#START tensor_control_isr_Interrupt` */
 181:tensor_control_isr.c **** 
 182:tensor_control_isr.c ****     //int32_t L=4000,A=150,R=19;  /* valores multiplicados por 100 para calculos enteros */
 183:tensor_control_isr.c ****     //float P[] = {138.5965,-12.3874,0.578,-0.0124,0.0001};
 184:tensor_control_isr.c ****     /* Se obtiene RT(n) donde n es el numero de vueltas */
 185:tensor_control_isr.c ****     //float RT = P[0]+P[1]*current_pos+P[2]*(current_pos^2)+P[3]*(current_pos^3)+P[4]*(current_pos^
 186:tensor_control_isr.c ****     
 187:tensor_control_isr.c ****     actual_tension = _tVal;
  38              		.loc 1 187 0
  39 0002 094B     		ldr	r3, .L3
  40 0004 1B88     		ldrh	r3, [r3]
  41 0006 1BB2     		sxth	r3, r3
ARM GAS  C:\Users\GONZAL~1\AppData\Local\Temp\ccoKXXrf.s 			page 5


  42 0008 084D     		ldr	r5, .L3+4
  43 000a 2B60     		str	r3, [r5]
 188:tensor_control_isr.c ****     
 189:tensor_control_isr.c ****     PID_setRef(&tens_pid_,tension_ref);
  44              		.loc 1 189 0
  45 000c 084B     		ldr	r3, .L3+8
  46 000e 1968     		ldr	r1, [r3]
  47 0010 084C     		ldr	r4, .L3+12
  48 0012 2046     		mov	r0, r4
  49 0014 FFF7FEFF 		bl	PID_setRef
  50              	.LVL0:
 190:tensor_control_isr.c ****     
 191:tensor_control_isr.c ****     tension_pid_output = PID_calculatePID(&tens_pid_,actual_tension);
  51              		.loc 1 191 0
  52 0018 2968     		ldr	r1, [r5]
  53 001a 2046     		mov	r0, r4
  54 001c FFF7FEFF 		bl	PID_calculatePID
  55              	.LVL1:
  56 0020 054B     		ldr	r3, .L3+16
  57 0022 1860     		str	r0, [r3]
  58              	.LVL2:
  59 0024 38BD     		pop	{r3, r4, r5, pc}
  60              	.L4:
  61 0026 00BF     		.align	2
  62              	.L3:
  63 0028 00000000 		.word	_tVal
  64 002c 00000000 		.word	actual_tension
  65 0030 00000000 		.word	tension_ref
  66 0034 00000000 		.word	tens_pid_
  67 0038 00000000 		.word	tension_pid_output
  68              		.cfi_endproc
  69              	.LFE67:
  70              		.size	tensor_control_isr_Interrupt, .-tensor_control_isr_Interrupt
  71              		.section	.text.tensor_control_isr_SetVector,"ax",%progbits
  72              		.align	2
  73              		.global	tensor_control_isr_SetVector
  74              		.thumb
  75              		.thumb_func
  76              		.type	tensor_control_isr_SetVector, %function
  77              	tensor_control_isr_SetVector:
  78              	.LFB68:
 192:tensor_control_isr.c ****     int aux = abs(tension_pid_output);
 193:tensor_control_isr.c ****     //_pid_out = fn_mapper_8b(aux,0,4096,0,255);
 194:tensor_control_isr.c ****     
 195:tensor_control_isr.c ****     #ifdef TENDON_TENSION_CONTROL
 196:tensor_control_isr.c ****         BRAKEn_Write(1);    
 197:tensor_control_isr.c ****             
 198:tensor_control_isr.c ****         /* change rotor direction according to pid output */
 199:tensor_control_isr.c ****         if(tension_pid_output < 0)
 200:tensor_control_isr.c ****             dir_state=1;
 201:tensor_control_isr.c ****         else
 202:tensor_control_isr.c ****             dir_state=0;
 203:tensor_control_isr.c ****         
 204:tensor_control_isr.c ****         //(int)fabs(Sigmoid(_pid_out,PWM_MAX,K_PWM));
 205:tensor_control_isr.c ****         VDAC8_Speed_SetValue((uint8)(_pid_out));
 206:tensor_control_isr.c ****         
 207:tensor_control_isr.c ****     #endif
ARM GAS  C:\Users\GONZAL~1\AppData\Local\Temp\ccoKXXrf.s 			page 6


 208:tensor_control_isr.c ****     
 209:tensor_control_isr.c ****     /* Con la tension medida se calcula el pwm que se le pasa al motor
 210:tensor_control_isr.c ****        para hacer el control de tension */
 211:tensor_control_isr.c ****     
 212:tensor_control_isr.c ****     /* `#END` */
 213:tensor_control_isr.c **** }
 214:tensor_control_isr.c **** 
 215:tensor_control_isr.c **** 
 216:tensor_control_isr.c **** /*******************************************************************************
 217:tensor_control_isr.c **** * Function Name: tensor_control_isr_SetVector
 218:tensor_control_isr.c **** ********************************************************************************
 219:tensor_control_isr.c **** *
 220:tensor_control_isr.c **** * Summary:
 221:tensor_control_isr.c **** *   Change the ISR vector for the Interrupt. Note calling tensor_control_isr_Start
 222:tensor_control_isr.c **** *   will override any effect this method would have had. To set the vector 
 223:tensor_control_isr.c **** *   before the component has been started use tensor_control_isr_StartEx instead.
 224:tensor_control_isr.c **** * 
 225:tensor_control_isr.c **** *   When defining ISR functions, the CY_ISR and CY_ISR_PROTO macros should be 
 226:tensor_control_isr.c **** *   used to provide consistent definition across compilers:
 227:tensor_control_isr.c **** *
 228:tensor_control_isr.c **** *   Function definition example:
 229:tensor_control_isr.c **** *   CY_ISR(MyISR)
 230:tensor_control_isr.c **** *   {
 231:tensor_control_isr.c **** *   }
 232:tensor_control_isr.c **** *
 233:tensor_control_isr.c **** *   Function prototype example:
 234:tensor_control_isr.c **** *     CY_ISR_PROTO(MyISR);
 235:tensor_control_isr.c **** *
 236:tensor_control_isr.c **** * Parameters:
 237:tensor_control_isr.c **** *   address: Address of the ISR to set in the interrupt vector table.
 238:tensor_control_isr.c **** *
 239:tensor_control_isr.c **** * Return:
 240:tensor_control_isr.c **** *   None
 241:tensor_control_isr.c **** *
 242:tensor_control_isr.c **** *******************************************************************************/
 243:tensor_control_isr.c **** void tensor_control_isr_SetVector(cyisraddress address)
 244:tensor_control_isr.c **** {
  79              		.loc 1 244 0
  80              		.cfi_startproc
  81              		@ args = 0, pretend = 0, frame = 0
  82              		@ frame_needed = 0, uses_anonymous_args = 0
  83              		@ link register save eliminated.
  84              	.LVL3:
 245:tensor_control_isr.c ****     cyisraddress * ramVectorTable;
 246:tensor_control_isr.c **** 
 247:tensor_control_isr.c ****     ramVectorTable = (cyisraddress *) *CYINT_VECT_TABLE;
  85              		.loc 1 247 0
  86 0000 014B     		ldr	r3, .L6
  87 0002 1B68     		ldr	r3, [r3]
  88              	.LVL4:
 248:tensor_control_isr.c **** 
 249:tensor_control_isr.c ****     ramVectorTable[CYINT_IRQ_BASE + (uint32)tensor_control_isr__INTC_NUMBER] = address;
  89              		.loc 1 249 0
  90 0004 D866     		str	r0, [r3, #108]
  91 0006 7047     		bx	lr
  92              	.L7:
  93              		.align	2
ARM GAS  C:\Users\GONZAL~1\AppData\Local\Temp\ccoKXXrf.s 			page 7


  94              	.L6:
  95 0008 08ED00E0 		.word	-536810232
  96              		.cfi_endproc
  97              	.LFE68:
  98              		.size	tensor_control_isr_SetVector, .-tensor_control_isr_SetVector
  99              		.section	.text.tensor_control_isr_GetVector,"ax",%progbits
 100              		.align	2
 101              		.global	tensor_control_isr_GetVector
 102              		.thumb
 103              		.thumb_func
 104              		.type	tensor_control_isr_GetVector, %function
 105              	tensor_control_isr_GetVector:
 106              	.LFB69:
 250:tensor_control_isr.c **** }
 251:tensor_control_isr.c **** 
 252:tensor_control_isr.c **** 
 253:tensor_control_isr.c **** /*******************************************************************************
 254:tensor_control_isr.c **** * Function Name: tensor_control_isr_GetVector
 255:tensor_control_isr.c **** ********************************************************************************
 256:tensor_control_isr.c **** *
 257:tensor_control_isr.c **** * Summary:
 258:tensor_control_isr.c **** *   Gets the "address" of the current ISR vector for the Interrupt.
 259:tensor_control_isr.c **** *
 260:tensor_control_isr.c **** * Parameters:
 261:tensor_control_isr.c **** *   None
 262:tensor_control_isr.c **** *
 263:tensor_control_isr.c **** * Return:
 264:tensor_control_isr.c **** *   Address of the ISR in the interrupt vector table.
 265:tensor_control_isr.c **** *
 266:tensor_control_isr.c **** *******************************************************************************/
 267:tensor_control_isr.c **** cyisraddress tensor_control_isr_GetVector(void)
 268:tensor_control_isr.c **** {
 107              		.loc 1 268 0
 108              		.cfi_startproc
 109              		@ args = 0, pretend = 0, frame = 0
 110              		@ frame_needed = 0, uses_anonymous_args = 0
 111              		@ link register save eliminated.
 269:tensor_control_isr.c ****     cyisraddress * ramVectorTable;
 270:tensor_control_isr.c **** 
 271:tensor_control_isr.c ****     ramVectorTable = (cyisraddress *) *CYINT_VECT_TABLE;
 112              		.loc 1 271 0
 113 0000 014B     		ldr	r3, .L9
 114 0002 1B68     		ldr	r3, [r3]
 115              	.LVL5:
 272:tensor_control_isr.c **** 
 273:tensor_control_isr.c ****     return ramVectorTable[CYINT_IRQ_BASE + (uint32)tensor_control_isr__INTC_NUMBER];
 274:tensor_control_isr.c **** }
 116              		.loc 1 274 0
 117 0004 D86E     		ldr	r0, [r3, #108]
 118 0006 7047     		bx	lr
 119              	.L10:
 120              		.align	2
 121              	.L9:
 122 0008 08ED00E0 		.word	-536810232
 123              		.cfi_endproc
 124              	.LFE69:
 125              		.size	tensor_control_isr_GetVector, .-tensor_control_isr_GetVector
ARM GAS  C:\Users\GONZAL~1\AppData\Local\Temp\ccoKXXrf.s 			page 8


 126              		.section	.text.tensor_control_isr_SetPriority,"ax",%progbits
 127              		.align	2
 128              		.global	tensor_control_isr_SetPriority
 129              		.thumb
 130              		.thumb_func
 131              		.type	tensor_control_isr_SetPriority, %function
 132              	tensor_control_isr_SetPriority:
 133              	.LFB70:
 275:tensor_control_isr.c **** 
 276:tensor_control_isr.c **** 
 277:tensor_control_isr.c **** /*******************************************************************************
 278:tensor_control_isr.c **** * Function Name: tensor_control_isr_SetPriority
 279:tensor_control_isr.c **** ********************************************************************************
 280:tensor_control_isr.c **** *
 281:tensor_control_isr.c **** * Summary:
 282:tensor_control_isr.c **** *   Sets the Priority of the Interrupt. 
 283:tensor_control_isr.c **** *
 284:tensor_control_isr.c **** *   Note calling tensor_control_isr_Start or tensor_control_isr_StartEx will 
 285:tensor_control_isr.c **** *   override any effect this API would have had. This API should only be called
 286:tensor_control_isr.c **** *   after tensor_control_isr_Start or tensor_control_isr_StartEx has been called. 
 287:tensor_control_isr.c **** *   To set the initial priority for the component, use the Design-Wide Resources
 288:tensor_control_isr.c **** *   Interrupt Editor.
 289:tensor_control_isr.c **** *
 290:tensor_control_isr.c **** *   Note This API has no effect on Non-maskable interrupt NMI).
 291:tensor_control_isr.c **** *
 292:tensor_control_isr.c **** * Parameters:
 293:tensor_control_isr.c **** *   priority: Priority of the interrupt, 0 being the highest priority
 294:tensor_control_isr.c **** *             PSoC 3 and PSoC 5LP: Priority is from 0 to 7.
 295:tensor_control_isr.c **** *             PSoC 4: Priority is from 0 to 3.
 296:tensor_control_isr.c **** *
 297:tensor_control_isr.c **** * Return:
 298:tensor_control_isr.c **** *   None
 299:tensor_control_isr.c **** *
 300:tensor_control_isr.c **** *******************************************************************************/
 301:tensor_control_isr.c **** void tensor_control_isr_SetPriority(uint8 priority)
 302:tensor_control_isr.c **** {
 134              		.loc 1 302 0
 135              		.cfi_startproc
 136              		@ args = 0, pretend = 0, frame = 0
 137              		@ frame_needed = 0, uses_anonymous_args = 0
 138              		@ link register save eliminated.
 139              	.LVL6:
 303:tensor_control_isr.c ****     *tensor_control_isr_INTC_PRIOR = priority << 5;
 140              		.loc 1 303 0
 141 0000 4001     		lsls	r0, r0, #5
 142              	.LVL7:
 143 0002 C0B2     		uxtb	r0, r0
 144 0004 014B     		ldr	r3, .L12
 145 0006 1870     		strb	r0, [r3]
 146 0008 7047     		bx	lr
 147              	.L13:
 148 000a 00BF     		.align	2
 149              	.L12:
 150 000c 0BE400E0 		.word	-536812533
 151              		.cfi_endproc
 152              	.LFE70:
 153              		.size	tensor_control_isr_SetPriority, .-tensor_control_isr_SetPriority
ARM GAS  C:\Users\GONZAL~1\AppData\Local\Temp\ccoKXXrf.s 			page 9


 154              		.section	.text.tensor_control_isr_GetPriority,"ax",%progbits
 155              		.align	2
 156              		.global	tensor_control_isr_GetPriority
 157              		.thumb
 158              		.thumb_func
 159              		.type	tensor_control_isr_GetPriority, %function
 160              	tensor_control_isr_GetPriority:
 161              	.LFB71:
 304:tensor_control_isr.c **** }
 305:tensor_control_isr.c **** 
 306:tensor_control_isr.c **** 
 307:tensor_control_isr.c **** /*******************************************************************************
 308:tensor_control_isr.c **** * Function Name: tensor_control_isr_GetPriority
 309:tensor_control_isr.c **** ********************************************************************************
 310:tensor_control_isr.c **** *
 311:tensor_control_isr.c **** * Summary:
 312:tensor_control_isr.c **** *   Gets the Priority of the Interrupt.
 313:tensor_control_isr.c **** *
 314:tensor_control_isr.c **** * Parameters:
 315:tensor_control_isr.c **** *   None
 316:tensor_control_isr.c **** *
 317:tensor_control_isr.c **** * Return:
 318:tensor_control_isr.c **** *   Priority of the interrupt, 0 being the highest priority
 319:tensor_control_isr.c **** *    PSoC 3 and PSoC 5LP: Priority is from 0 to 7.
 320:tensor_control_isr.c **** *    PSoC 4: Priority is from 0 to 3.
 321:tensor_control_isr.c **** *
 322:tensor_control_isr.c **** *******************************************************************************/
 323:tensor_control_isr.c **** uint8 tensor_control_isr_GetPriority(void)
 324:tensor_control_isr.c **** {
 162              		.loc 1 324 0
 163              		.cfi_startproc
 164              		@ args = 0, pretend = 0, frame = 0
 165              		@ frame_needed = 0, uses_anonymous_args = 0
 166              		@ link register save eliminated.
 325:tensor_control_isr.c ****     uint8 priority;
 326:tensor_control_isr.c **** 
 327:tensor_control_isr.c **** 
 328:tensor_control_isr.c ****     priority = *tensor_control_isr_INTC_PRIOR >> 5;
 167              		.loc 1 328 0
 168 0000 014B     		ldr	r3, .L15
 169 0002 1878     		ldrb	r0, [r3]	@ zero_extendqisi2
 170              	.LVL8:
 329:tensor_control_isr.c **** 
 330:tensor_control_isr.c ****     return priority;
 331:tensor_control_isr.c **** }
 171              		.loc 1 331 0
 172 0004 4009     		lsrs	r0, r0, #5
 173              	.LVL9:
 174 0006 7047     		bx	lr
 175              	.L16:
 176              		.align	2
 177              	.L15:
 178 0008 0BE400E0 		.word	-536812533
 179              		.cfi_endproc
 180              	.LFE71:
 181              		.size	tensor_control_isr_GetPriority, .-tensor_control_isr_GetPriority
 182              		.section	.text.tensor_control_isr_Enable,"ax",%progbits
ARM GAS  C:\Users\GONZAL~1\AppData\Local\Temp\ccoKXXrf.s 			page 10


 183              		.align	2
 184              		.global	tensor_control_isr_Enable
 185              		.thumb
 186              		.thumb_func
 187              		.type	tensor_control_isr_Enable, %function
 188              	tensor_control_isr_Enable:
 189              	.LFB72:
 332:tensor_control_isr.c **** 
 333:tensor_control_isr.c **** 
 334:tensor_control_isr.c **** /*******************************************************************************
 335:tensor_control_isr.c **** * Function Name: tensor_control_isr_Enable
 336:tensor_control_isr.c **** ********************************************************************************
 337:tensor_control_isr.c **** *
 338:tensor_control_isr.c **** * Summary:
 339:tensor_control_isr.c **** *   Enables the interrupt to the interrupt controller. Do not call this function
 340:tensor_control_isr.c **** *   unless ISR_Start() has been called or the functionality of the ISR_Start() 
 341:tensor_control_isr.c **** *   function, which sets the vector and the priority, has been called.
 342:tensor_control_isr.c **** *
 343:tensor_control_isr.c **** * Parameters:
 344:tensor_control_isr.c **** *   None
 345:tensor_control_isr.c **** *
 346:tensor_control_isr.c **** * Return:
 347:tensor_control_isr.c **** *   None
 348:tensor_control_isr.c **** *
 349:tensor_control_isr.c **** *******************************************************************************/
 350:tensor_control_isr.c **** void tensor_control_isr_Enable(void)
 351:tensor_control_isr.c **** {
 190              		.loc 1 351 0
 191              		.cfi_startproc
 192              		@ args = 0, pretend = 0, frame = 0
 193              		@ frame_needed = 0, uses_anonymous_args = 0
 194              		@ link register save eliminated.
 352:tensor_control_isr.c ****     /* Enable the general interrupt. */
 353:tensor_control_isr.c ****     *tensor_control_isr_INTC_SET_EN = tensor_control_isr__INTC_MASK;
 195              		.loc 1 353 0
 196 0000 4FF40062 		mov	r2, #2048
 197 0004 014B     		ldr	r3, .L18
 198 0006 1A60     		str	r2, [r3]
 199 0008 7047     		bx	lr
 200              	.L19:
 201 000a 00BF     		.align	2
 202              	.L18:
 203 000c 00E100E0 		.word	-536813312
 204              		.cfi_endproc
 205              	.LFE72:
 206              		.size	tensor_control_isr_Enable, .-tensor_control_isr_Enable
 207              		.section	.text.tensor_control_isr_GetState,"ax",%progbits
 208              		.align	2
 209              		.global	tensor_control_isr_GetState
 210              		.thumb
 211              		.thumb_func
 212              		.type	tensor_control_isr_GetState, %function
 213              	tensor_control_isr_GetState:
 214              	.LFB73:
 354:tensor_control_isr.c **** }
 355:tensor_control_isr.c **** 
 356:tensor_control_isr.c **** 
ARM GAS  C:\Users\GONZAL~1\AppData\Local\Temp\ccoKXXrf.s 			page 11


 357:tensor_control_isr.c **** /*******************************************************************************
 358:tensor_control_isr.c **** * Function Name: tensor_control_isr_GetState
 359:tensor_control_isr.c **** ********************************************************************************
 360:tensor_control_isr.c **** *
 361:tensor_control_isr.c **** * Summary:
 362:tensor_control_isr.c **** *   Gets the state (enabled, disabled) of the Interrupt.
 363:tensor_control_isr.c **** *
 364:tensor_control_isr.c **** * Parameters:
 365:tensor_control_isr.c **** *   None
 366:tensor_control_isr.c **** *
 367:tensor_control_isr.c **** * Return:
 368:tensor_control_isr.c **** *   1 if enabled, 0 if disabled.
 369:tensor_control_isr.c **** *
 370:tensor_control_isr.c **** *******************************************************************************/
 371:tensor_control_isr.c **** uint8 tensor_control_isr_GetState(void)
 372:tensor_control_isr.c **** {
 215              		.loc 1 372 0
 216              		.cfi_startproc
 217              		@ args = 0, pretend = 0, frame = 0
 218              		@ frame_needed = 0, uses_anonymous_args = 0
 219              		@ link register save eliminated.
 373:tensor_control_isr.c ****     /* Get the state of the general interrupt. */
 374:tensor_control_isr.c ****     return ((*tensor_control_isr_INTC_SET_EN & (uint32)tensor_control_isr__INTC_MASK) != 0u) ? 1u:0
 220              		.loc 1 374 0
 221 0000 044B     		ldr	r3, .L23
 222 0002 1B68     		ldr	r3, [r3]
 223 0004 13F4006F 		tst	r3, #2048
 224 0008 01D0     		beq	.L22
 225 000a 0120     		movs	r0, #1
 226 000c 7047     		bx	lr
 227              	.L22:
 228 000e 0020     		movs	r0, #0
 375:tensor_control_isr.c **** }
 229              		.loc 1 375 0
 230 0010 7047     		bx	lr
 231              	.L24:
 232 0012 00BF     		.align	2
 233              	.L23:
 234 0014 00E100E0 		.word	-536813312
 235              		.cfi_endproc
 236              	.LFE73:
 237              		.size	tensor_control_isr_GetState, .-tensor_control_isr_GetState
 238              		.section	.text.tensor_control_isr_Disable,"ax",%progbits
 239              		.align	2
 240              		.global	tensor_control_isr_Disable
 241              		.thumb
 242              		.thumb_func
 243              		.type	tensor_control_isr_Disable, %function
 244              	tensor_control_isr_Disable:
 245              	.LFB74:
 376:tensor_control_isr.c **** 
 377:tensor_control_isr.c **** 
 378:tensor_control_isr.c **** /*******************************************************************************
 379:tensor_control_isr.c **** * Function Name: tensor_control_isr_Disable
 380:tensor_control_isr.c **** ********************************************************************************
 381:tensor_control_isr.c **** *
 382:tensor_control_isr.c **** * Summary:
ARM GAS  C:\Users\GONZAL~1\AppData\Local\Temp\ccoKXXrf.s 			page 12


 383:tensor_control_isr.c **** *   Disables the Interrupt in the interrupt controller.
 384:tensor_control_isr.c **** *
 385:tensor_control_isr.c **** * Parameters:
 386:tensor_control_isr.c **** *   None
 387:tensor_control_isr.c **** *
 388:tensor_control_isr.c **** * Return:
 389:tensor_control_isr.c **** *   None
 390:tensor_control_isr.c **** *
 391:tensor_control_isr.c **** *******************************************************************************/
 392:tensor_control_isr.c **** void tensor_control_isr_Disable(void)
 393:tensor_control_isr.c **** {
 246              		.loc 1 393 0
 247              		.cfi_startproc
 248              		@ args = 0, pretend = 0, frame = 0
 249              		@ frame_needed = 0, uses_anonymous_args = 0
 250              		@ link register save eliminated.
 394:tensor_control_isr.c ****     /* Disable the general interrupt. */
 395:tensor_control_isr.c ****     *tensor_control_isr_INTC_CLR_EN = tensor_control_isr__INTC_MASK;
 251              		.loc 1 395 0
 252 0000 4FF40062 		mov	r2, #2048
 253 0004 014B     		ldr	r3, .L26
 254 0006 1A60     		str	r2, [r3]
 255 0008 7047     		bx	lr
 256              	.L27:
 257 000a 00BF     		.align	2
 258              	.L26:
 259 000c 80E100E0 		.word	-536813184
 260              		.cfi_endproc
 261              	.LFE74:
 262              		.size	tensor_control_isr_Disable, .-tensor_control_isr_Disable
 263              		.section	.text.tensor_control_isr_Start,"ax",%progbits
 264              		.align	2
 265              		.global	tensor_control_isr_Start
 266              		.thumb
 267              		.thumb_func
 268              		.type	tensor_control_isr_Start, %function
 269              	tensor_control_isr_Start:
 270              	.LFB64:
  75:tensor_control_isr.c ****     /* For all we know the interrupt is active. */
 271              		.loc 1 75 0
 272              		.cfi_startproc
 273              		@ args = 0, pretend = 0, frame = 0
 274              		@ frame_needed = 0, uses_anonymous_args = 0
 275 0000 08B5     		push	{r3, lr}
 276              		.cfi_def_cfa_offset 8
 277              		.cfi_offset 3, -8
 278              		.cfi_offset 14, -4
  77:tensor_control_isr.c **** 
 279              		.loc 1 77 0
 280 0002 FFF7FEFF 		bl	tensor_control_isr_Disable
 281              	.LVL10:
  80:tensor_control_isr.c **** 
 282              		.loc 1 80 0
 283 0006 0448     		ldr	r0, .L30
 284 0008 FFF7FEFF 		bl	tensor_control_isr_SetVector
 285              	.LVL11:
  83:tensor_control_isr.c **** 
ARM GAS  C:\Users\GONZAL~1\AppData\Local\Temp\ccoKXXrf.s 			page 13


 286              		.loc 1 83 0
 287 000c 0720     		movs	r0, #7
 288 000e FFF7FEFF 		bl	tensor_control_isr_SetPriority
 289              	.LVL12:
  86:tensor_control_isr.c **** }
 290              		.loc 1 86 0
 291 0012 FFF7FEFF 		bl	tensor_control_isr_Enable
 292              	.LVL13:
 293 0016 08BD     		pop	{r3, pc}
 294              	.L31:
 295              		.align	2
 296              	.L30:
 297 0018 00000000 		.word	tensor_control_isr_Interrupt
 298              		.cfi_endproc
 299              	.LFE64:
 300              		.size	tensor_control_isr_Start, .-tensor_control_isr_Start
 301              		.section	.text.tensor_control_isr_StartEx,"ax",%progbits
 302              		.align	2
 303              		.global	tensor_control_isr_StartEx
 304              		.thumb
 305              		.thumb_func
 306              		.type	tensor_control_isr_StartEx, %function
 307              	tensor_control_isr_StartEx:
 308              	.LFB65:
 118:tensor_control_isr.c ****     /* For all we know the interrupt is active. */
 309              		.loc 1 118 0
 310              		.cfi_startproc
 311              		@ args = 0, pretend = 0, frame = 0
 312              		@ frame_needed = 0, uses_anonymous_args = 0
 313              	.LVL14:
 314 0000 10B5     		push	{r4, lr}
 315              		.cfi_def_cfa_offset 8
 316              		.cfi_offset 4, -8
 317              		.cfi_offset 14, -4
 318 0002 0446     		mov	r4, r0
 120:tensor_control_isr.c **** 
 319              		.loc 1 120 0
 320 0004 FFF7FEFF 		bl	tensor_control_isr_Disable
 321              	.LVL15:
 123:tensor_control_isr.c **** 
 322              		.loc 1 123 0
 323 0008 2046     		mov	r0, r4
 324 000a FFF7FEFF 		bl	tensor_control_isr_SetVector
 325              	.LVL16:
 126:tensor_control_isr.c **** 
 326              		.loc 1 126 0
 327 000e 0720     		movs	r0, #7
 328 0010 FFF7FEFF 		bl	tensor_control_isr_SetPriority
 329              	.LVL17:
 129:tensor_control_isr.c **** }
 330              		.loc 1 129 0
 331 0014 FFF7FEFF 		bl	tensor_control_isr_Enable
 332              	.LVL18:
 333 0018 10BD     		pop	{r4, pc}
 334              		.cfi_endproc
 335              	.LFE65:
 336              		.size	tensor_control_isr_StartEx, .-tensor_control_isr_StartEx
ARM GAS  C:\Users\GONZAL~1\AppData\Local\Temp\ccoKXXrf.s 			page 14


 337 001a 00BF     		.section	.text.tensor_control_isr_Stop,"ax",%progbits
 338              		.align	2
 339              		.global	tensor_control_isr_Stop
 340              		.thumb
 341              		.thumb_func
 342              		.type	tensor_control_isr_Stop, %function
 343              	tensor_control_isr_Stop:
 344              	.LFB66:
 148:tensor_control_isr.c ****     /* Disable this interrupt. */
 345              		.loc 1 148 0
 346              		.cfi_startproc
 347              		@ args = 0, pretend = 0, frame = 0
 348              		@ frame_needed = 0, uses_anonymous_args = 0
 349 0000 08B5     		push	{r3, lr}
 350              		.cfi_def_cfa_offset 8
 351              		.cfi_offset 3, -8
 352              		.cfi_offset 14, -4
 150:tensor_control_isr.c **** 
 353              		.loc 1 150 0
 354 0002 FFF7FEFF 		bl	tensor_control_isr_Disable
 355              	.LVL19:
 153:tensor_control_isr.c **** }
 356              		.loc 1 153 0
 357 0006 0248     		ldr	r0, .L36
 358 0008 FFF7FEFF 		bl	tensor_control_isr_SetVector
 359              	.LVL20:
 360 000c 08BD     		pop	{r3, pc}
 361              	.L37:
 362 000e 00BF     		.align	2
 363              	.L36:
 364 0010 00000000 		.word	IntDefaultHandler
 365              		.cfi_endproc
 366              	.LFE66:
 367              		.size	tensor_control_isr_Stop, .-tensor_control_isr_Stop
 368              		.section	.text.tensor_control_isr_SetPending,"ax",%progbits
 369              		.align	2
 370              		.global	tensor_control_isr_SetPending
 371              		.thumb
 372              		.thumb_func
 373              		.type	tensor_control_isr_SetPending, %function
 374              	tensor_control_isr_SetPending:
 375              	.LFB75:
 396:tensor_control_isr.c **** }
 397:tensor_control_isr.c **** 
 398:tensor_control_isr.c **** 
 399:tensor_control_isr.c **** /*******************************************************************************
 400:tensor_control_isr.c **** * Function Name: tensor_control_isr_SetPending
 401:tensor_control_isr.c **** ********************************************************************************
 402:tensor_control_isr.c **** *
 403:tensor_control_isr.c **** * Summary:
 404:tensor_control_isr.c **** *   Causes the Interrupt to enter the pending state, a software method of
 405:tensor_control_isr.c **** *   generating the interrupt.
 406:tensor_control_isr.c **** *
 407:tensor_control_isr.c **** * Parameters:
 408:tensor_control_isr.c **** *   None
 409:tensor_control_isr.c **** *
 410:tensor_control_isr.c **** * Return:
ARM GAS  C:\Users\GONZAL~1\AppData\Local\Temp\ccoKXXrf.s 			page 15


 411:tensor_control_isr.c **** *   None
 412:tensor_control_isr.c **** *
 413:tensor_control_isr.c **** * Side Effects:
 414:tensor_control_isr.c **** *   If interrupts are enabled and the interrupt is set up properly, the ISR is
 415:tensor_control_isr.c **** *   entered (depending on the priority of this interrupt and other pending 
 416:tensor_control_isr.c **** *   interrupts).
 417:tensor_control_isr.c **** *
 418:tensor_control_isr.c **** *******************************************************************************/
 419:tensor_control_isr.c **** void tensor_control_isr_SetPending(void)
 420:tensor_control_isr.c **** {
 376              		.loc 1 420 0
 377              		.cfi_startproc
 378              		@ args = 0, pretend = 0, frame = 0
 379              		@ frame_needed = 0, uses_anonymous_args = 0
 380              		@ link register save eliminated.
 421:tensor_control_isr.c ****     *tensor_control_isr_INTC_SET_PD = tensor_control_isr__INTC_MASK;
 381              		.loc 1 421 0
 382 0000 4FF40062 		mov	r2, #2048
 383 0004 014B     		ldr	r3, .L39
 384 0006 1A60     		str	r2, [r3]
 385 0008 7047     		bx	lr
 386              	.L40:
 387 000a 00BF     		.align	2
 388              	.L39:
 389 000c 00E200E0 		.word	-536813056
 390              		.cfi_endproc
 391              	.LFE75:
 392              		.size	tensor_control_isr_SetPending, .-tensor_control_isr_SetPending
 393              		.section	.text.tensor_control_isr_ClearPending,"ax",%progbits
 394              		.align	2
 395              		.global	tensor_control_isr_ClearPending
 396              		.thumb
 397              		.thumb_func
 398              		.type	tensor_control_isr_ClearPending, %function
 399              	tensor_control_isr_ClearPending:
 400              	.LFB76:
 422:tensor_control_isr.c **** }
 423:tensor_control_isr.c **** 
 424:tensor_control_isr.c **** 
 425:tensor_control_isr.c **** /*******************************************************************************
 426:tensor_control_isr.c **** * Function Name: tensor_control_isr_ClearPending
 427:tensor_control_isr.c **** ********************************************************************************
 428:tensor_control_isr.c **** *
 429:tensor_control_isr.c **** * Summary:
 430:tensor_control_isr.c **** *   Clears a pending interrupt in the interrupt controller.
 431:tensor_control_isr.c **** *
 432:tensor_control_isr.c **** *   Note Some interrupt sources are clear-on-read and require the block 
 433:tensor_control_isr.c **** *   interrupt/status register to be read/cleared with the appropriate block API 
 434:tensor_control_isr.c **** *   (GPIO, UART, and so on). Otherwise the ISR will continue to remain in 
 435:tensor_control_isr.c **** *   pending state even though the interrupt itself is cleared using this API.
 436:tensor_control_isr.c **** *
 437:tensor_control_isr.c **** * Parameters:
 438:tensor_control_isr.c **** *   None
 439:tensor_control_isr.c **** *
 440:tensor_control_isr.c **** * Return:
 441:tensor_control_isr.c **** *   None
 442:tensor_control_isr.c **** *
ARM GAS  C:\Users\GONZAL~1\AppData\Local\Temp\ccoKXXrf.s 			page 16


 443:tensor_control_isr.c **** *******************************************************************************/
 444:tensor_control_isr.c **** void tensor_control_isr_ClearPending(void)
 445:tensor_control_isr.c **** {
 401              		.loc 1 445 0
 402              		.cfi_startproc
 403              		@ args = 0, pretend = 0, frame = 0
 404              		@ frame_needed = 0, uses_anonymous_args = 0
 405              		@ link register save eliminated.
 446:tensor_control_isr.c ****     *tensor_control_isr_INTC_CLR_PD = tensor_control_isr__INTC_MASK;
 406              		.loc 1 446 0
 407 0000 4FF40062 		mov	r2, #2048
 408 0004 014B     		ldr	r3, .L42
 409 0006 1A60     		str	r2, [r3]
 410 0008 7047     		bx	lr
 411              	.L43:
 412 000a 00BF     		.align	2
 413              	.L42:
 414 000c 80E200E0 		.word	-536812928
 415              		.cfi_endproc
 416              	.LFE76:
 417              		.size	tensor_control_isr_ClearPending, .-tensor_control_isr_ClearPending
 418              		.comm	current_pos,4,4
 419              		.comm	debug,4,4
 420              		.comm	tens_pid_,44,4
 421              		.comm	tension_pid_output,4,4
 422              		.comm	tension_ref,4,4
 423              		.comm	actual_tension,4,4
 424              		.comm	_tVal,2,2
 425              		.comm	pulgar,520,4
 426              		.comm	PM2,260,4
 427              		.comm	PM1,260,4
 428              		.comm	_state_,4,4
 429              		.comm	_uart_Reset,1,1
 430              		.comm	SendEmulatedData,1,1
 431              		.comm	SendSingleByte,1,1
 432              		.comm	ContinuouslySendData,1,1
 433              		.comm	Ch,1,1
 434              		.comm	PB,16,4
 435              		.comm	TS_array,4,4
 436              		.comm	msg,16,4
 437              		.comm	RB,20,4
 438              		.text
 439              	.Letext0:
 440              		.file 2 "c:\\program files (x86)\\cypress\\psoc creator\\4.1\\psoc creator\\import\\gnu\\arm\\5.4.
 441              		.file 3 "c:\\program files (x86)\\cypress\\psoc creator\\4.1\\psoc creator\\import\\gnu\\arm\\5.4.
 442              		.file 4 "Generated_Source\\PSoC5/cytypes.h"
 443              		.file 5 "./pid.h"
 444              		.file 6 "./motor.h"
 445              		.file 7 "./structs.h"
 446              		.file 8 "./myUART.h"
 447              		.file 9 "./global.h"
 448              		.file 10 "./functions.h"
 449              		.file 11 "Generated_Source\\PSoC5/core_cm3.h"