ARM GAS  C:\Users\growo\AppData\Local\Temp\ccHjzAm6.s 			page 1


   1              		.syntax unified
   2              		.cpu cortex-m3
   3              		.fpu softvfp
   4              		.eabi_attribute 20, 1
   5              		.eabi_attribute 21, 1
   6              		.eabi_attribute 23, 3
   7              		.eabi_attribute 24, 1
   8              		.eabi_attribute 25, 1
   9              		.eabi_attribute 26, 1
  10              		.eabi_attribute 30, 1
  11              		.eabi_attribute 34, 1
  12              		.eabi_attribute 18, 4
  13              		.thumb
  14              		.syntax unified
  15              		.file	"vel_control_isr.c"
  16              		.text
  17              	.Ltext0:
  18              		.cfi_sections	.debug_frame
  19              		.section	.text.vel_control_isr_Interrupt,"ax",%progbits
  20              		.align	2
  21              		.global	vel_control_isr_Interrupt
  22              		.thumb
  23              		.thumb_func
  24              		.type	vel_control_isr_Interrupt, %function
  25              	vel_control_isr_Interrupt:
  26              	.LFB67:
  27              		.file 1 "vel_control_isr.c"
   1:vel_control_isr.c **** /*******************************************************************************
   2:vel_control_isr.c **** * File Name: vel_control_isr.c  
   3:vel_control_isr.c **** * Version 1.70
   4:vel_control_isr.c **** *
   5:vel_control_isr.c **** *  Description:
   6:vel_control_isr.c **** *   API for controlling the state of an interrupt.
   7:vel_control_isr.c **** *
   8:vel_control_isr.c **** *
   9:vel_control_isr.c **** *  Note:
  10:vel_control_isr.c **** *
  11:vel_control_isr.c **** ********************************************************************************
  12:vel_control_isr.c **** * Copyright 2008-2015, Cypress Semiconductor Corporation.  All rights reserved.
  13:vel_control_isr.c **** * You may use this file only in accordance with the license, terms, conditions, 
  14:vel_control_isr.c **** * disclaimers, and limitations in the end user license agreement accompanying 
  15:vel_control_isr.c **** * the software package with which this file was provided.
  16:vel_control_isr.c **** *******************************************************************************/
  17:vel_control_isr.c **** 
  18:vel_control_isr.c **** 
  19:vel_control_isr.c **** #include <cydevice_trm.h>
  20:vel_control_isr.c **** #include <CyLib.h>
  21:vel_control_isr.c **** #include <vel_control_isr.h>
  22:vel_control_isr.c **** #include "cyapicallbacks.h"
  23:vel_control_isr.c **** 
  24:vel_control_isr.c **** #if !defined(vel_control_isr__REMOVED) /* Check for removal by optimization */
  25:vel_control_isr.c **** 
  26:vel_control_isr.c **** /*******************************************************************************
  27:vel_control_isr.c **** *  Place your includes, defines and code here 
  28:vel_control_isr.c **** ********************************************************************************/
  29:vel_control_isr.c **** /* `#START vel_control_isr_intc` */
  30:vel_control_isr.c **** 
ARM GAS  C:\Users\growo\AppData\Local\Temp\ccHjzAm6.s 			page 2


  31:vel_control_isr.c **** #include <VDAC8_Speed.h>
  32:vel_control_isr.c **** #include <global.h>
  33:vel_control_isr.c **** 
  34:vel_control_isr.c **** volatile int32_t t_ha;
  35:vel_control_isr.c **** volatile int32_t speed_ref;
  36:vel_control_isr.c **** volatile int32_t actual_speed;
  37:vel_control_isr.c **** volatile uint8 _pVal;
  38:vel_control_isr.c ****     
  39:vel_control_isr.c **** PID_t speed_pid_;
  40:vel_control_isr.c **** int32_t speed_pid_output;
  41:vel_control_isr.c **** uint8 _pid_out;
  42:vel_control_isr.c ****     
  43:vel_control_isr.c **** /* `#END` */
  44:vel_control_isr.c **** 
  45:vel_control_isr.c **** #ifndef CYINT_IRQ_BASE
  46:vel_control_isr.c **** #define CYINT_IRQ_BASE      16
  47:vel_control_isr.c **** #endif /* CYINT_IRQ_BASE */
  48:vel_control_isr.c **** #ifndef CYINT_VECT_TABLE
  49:vel_control_isr.c **** #define CYINT_VECT_TABLE    ((cyisraddress **) CYREG_NVIC_VECT_OFFSET)
  50:vel_control_isr.c **** #endif /* CYINT_VECT_TABLE */
  51:vel_control_isr.c **** 
  52:vel_control_isr.c **** /* Declared in startup, used to set unused interrupts to. */
  53:vel_control_isr.c **** CY_ISR_PROTO(IntDefaultHandler);
  54:vel_control_isr.c **** 
  55:vel_control_isr.c **** 
  56:vel_control_isr.c **** /*******************************************************************************
  57:vel_control_isr.c **** * Function Name: vel_control_isr_Start
  58:vel_control_isr.c **** ********************************************************************************
  59:vel_control_isr.c **** *
  60:vel_control_isr.c **** * Summary:
  61:vel_control_isr.c **** *  Set up the interrupt and enable it. This function disables the interrupt, 
  62:vel_control_isr.c **** *  sets the default interrupt vector, sets the priority from the value in the
  63:vel_control_isr.c **** *  Design Wide Resources Interrupt Editor, then enables the interrupt to the 
  64:vel_control_isr.c **** *  interrupt controller.
  65:vel_control_isr.c **** *
  66:vel_control_isr.c **** * Parameters:  
  67:vel_control_isr.c **** *   None
  68:vel_control_isr.c **** *
  69:vel_control_isr.c **** * Return:
  70:vel_control_isr.c **** *   None
  71:vel_control_isr.c **** *
  72:vel_control_isr.c **** *******************************************************************************/
  73:vel_control_isr.c **** void vel_control_isr_Start(void)
  74:vel_control_isr.c **** {
  75:vel_control_isr.c ****     /* For all we know the interrupt is active. */
  76:vel_control_isr.c ****     vel_control_isr_Disable();
  77:vel_control_isr.c **** 
  78:vel_control_isr.c ****     /* Set the ISR to point to the vel_control_isr Interrupt. */
  79:vel_control_isr.c ****     vel_control_isr_SetVector(&vel_control_isr_Interrupt);
  80:vel_control_isr.c **** 
  81:vel_control_isr.c ****     /* Set the priority. */
  82:vel_control_isr.c ****     vel_control_isr_SetPriority((uint8)vel_control_isr_INTC_PRIOR_NUMBER);
  83:vel_control_isr.c **** 
  84:vel_control_isr.c ****     /* Enable it. */
  85:vel_control_isr.c ****     vel_control_isr_Enable();
  86:vel_control_isr.c **** }
  87:vel_control_isr.c **** 
ARM GAS  C:\Users\growo\AppData\Local\Temp\ccHjzAm6.s 			page 3


  88:vel_control_isr.c **** 
  89:vel_control_isr.c **** /*******************************************************************************
  90:vel_control_isr.c **** * Function Name: vel_control_isr_StartEx
  91:vel_control_isr.c **** ********************************************************************************
  92:vel_control_isr.c **** *
  93:vel_control_isr.c **** * Summary:
  94:vel_control_isr.c **** *  Sets up the interrupt and enables it. This function disables the interrupt,
  95:vel_control_isr.c **** *  sets the interrupt vector based on the address passed in, sets the priority 
  96:vel_control_isr.c **** *  from the value in the Design Wide Resources Interrupt Editor, then enables 
  97:vel_control_isr.c **** *  the interrupt to the interrupt controller.
  98:vel_control_isr.c **** *  
  99:vel_control_isr.c **** *  When defining ISR functions, the CY_ISR and CY_ISR_PROTO macros should be 
 100:vel_control_isr.c **** *  used to provide consistent definition across compilers:
 101:vel_control_isr.c **** *  
 102:vel_control_isr.c **** *  Function definition example:
 103:vel_control_isr.c **** *   CY_ISR(MyISR)
 104:vel_control_isr.c **** *   {
 105:vel_control_isr.c **** *   }
 106:vel_control_isr.c **** *   Function prototype example:
 107:vel_control_isr.c **** *   CY_ISR_PROTO(MyISR);
 108:vel_control_isr.c **** *
 109:vel_control_isr.c **** * Parameters:  
 110:vel_control_isr.c **** *   address: Address of the ISR to set in the interrupt vector table.
 111:vel_control_isr.c **** *
 112:vel_control_isr.c **** * Return:
 113:vel_control_isr.c **** *   None
 114:vel_control_isr.c **** *
 115:vel_control_isr.c **** *******************************************************************************/
 116:vel_control_isr.c **** void vel_control_isr_StartEx(cyisraddress address)
 117:vel_control_isr.c **** {
 118:vel_control_isr.c ****     /* For all we know the interrupt is active. */
 119:vel_control_isr.c ****     vel_control_isr_Disable();
 120:vel_control_isr.c **** 
 121:vel_control_isr.c ****     /* Set the ISR to point to the vel_control_isr Interrupt. */
 122:vel_control_isr.c ****     vel_control_isr_SetVector(address);
 123:vel_control_isr.c **** 
 124:vel_control_isr.c ****     /* Set the priority. */
 125:vel_control_isr.c ****     vel_control_isr_SetPriority((uint8)vel_control_isr_INTC_PRIOR_NUMBER);
 126:vel_control_isr.c **** 
 127:vel_control_isr.c ****     /* Enable it. */
 128:vel_control_isr.c ****     vel_control_isr_Enable();
 129:vel_control_isr.c **** }
 130:vel_control_isr.c **** 
 131:vel_control_isr.c **** 
 132:vel_control_isr.c **** /*******************************************************************************
 133:vel_control_isr.c **** * Function Name: vel_control_isr_Stop
 134:vel_control_isr.c **** ********************************************************************************
 135:vel_control_isr.c **** *
 136:vel_control_isr.c **** * Summary:
 137:vel_control_isr.c **** *   Disables and removes the interrupt.
 138:vel_control_isr.c **** *
 139:vel_control_isr.c **** * Parameters:  
 140:vel_control_isr.c **** *   None
 141:vel_control_isr.c **** *
 142:vel_control_isr.c **** * Return:
 143:vel_control_isr.c **** *   None
 144:vel_control_isr.c **** *
ARM GAS  C:\Users\growo\AppData\Local\Temp\ccHjzAm6.s 			page 4


 145:vel_control_isr.c **** *******************************************************************************/
 146:vel_control_isr.c **** void vel_control_isr_Stop(void)
 147:vel_control_isr.c **** {
 148:vel_control_isr.c ****     /* Disable this interrupt. */
 149:vel_control_isr.c ****     vel_control_isr_Disable();
 150:vel_control_isr.c **** 
 151:vel_control_isr.c ****     /* Set the ISR to point to the passive one. */
 152:vel_control_isr.c ****     vel_control_isr_SetVector(&IntDefaultHandler);
 153:vel_control_isr.c **** }
 154:vel_control_isr.c **** 
 155:vel_control_isr.c **** 
 156:vel_control_isr.c **** /*******************************************************************************
 157:vel_control_isr.c **** * Function Name: vel_control_isr_Interrupt
 158:vel_control_isr.c **** ********************************************************************************
 159:vel_control_isr.c **** *
 160:vel_control_isr.c **** * Summary:
 161:vel_control_isr.c **** *   The default Interrupt Service Routine for vel_control_isr.
 162:vel_control_isr.c **** *
 163:vel_control_isr.c **** *   Add custom code between the coments to keep the next version of this file
 164:vel_control_isr.c **** *   from over writting your code.
 165:vel_control_isr.c **** *
 166:vel_control_isr.c **** * Parameters:  
 167:vel_control_isr.c **** *
 168:vel_control_isr.c **** * Return:
 169:vel_control_isr.c **** *   None
 170:vel_control_isr.c **** *
 171:vel_control_isr.c **** *******************************************************************************/
 172:vel_control_isr.c **** CY_ISR(vel_control_isr_Interrupt)
 173:vel_control_isr.c **** {
  28              		.loc 1 173 0
  29              		.cfi_startproc
  30              		@ args = 0, pretend = 0, frame = 0
  31              		@ frame_needed = 0, uses_anonymous_args = 0
  32 0000 10B5     		push	{r4, lr}
  33              		.cfi_def_cfa_offset 8
  34              		.cfi_offset 4, -8
  35              		.cfi_offset 14, -4
  36 0002 82B0     		sub	sp, sp, #8
  37              		.cfi_def_cfa_offset 16
 174:vel_control_isr.c ****     #ifdef vel_control_isr_INTERRUPT_INTERRUPT_CALLBACK
 175:vel_control_isr.c ****         vel_control_isr_Interrupt_InterruptCallback();
 176:vel_control_isr.c ****     #endif /* vel_control_isr_INTERRUPT_INTERRUPT_CALLBACK */ 
 177:vel_control_isr.c **** 
 178:vel_control_isr.c ****     /*  Place your Interrupt code here. */
 179:vel_control_isr.c ****     /* `#START vel_control_isr_Interrupt` */
 180:vel_control_isr.c **** 
 181:vel_control_isr.c ****     actual_speed = HF_CLK/t_ha * 30; // 60 * 2 / 4 = 30, in RPM
  38              		.loc 1 181 0
  39 0004 154B     		ldr	r3, .L4
  40 0006 1A68     		ldr	r2, [r3]
  41 0008 42F21073 		movw	r3, #10000
  42 000c 93FBF2F3 		sdiv	r3, r3, r2
  43 0010 C3EB0313 		rsb	r3, r3, r3, lsl #4
  44 0014 5A00     		lsls	r2, r3, #1
  45 0016 124C     		ldr	r4, .L4+4
  46 0018 2260     		str	r2, [r4]
 182:vel_control_isr.c ****     
ARM GAS  C:\Users\growo\AppData\Local\Temp\ccHjzAm6.s 			page 5


 183:vel_control_isr.c ****     PID_setRef(&speed_pid_,speed_ref);
  47              		.loc 1 183 0
  48 001a 124B     		ldr	r3, .L4+8
  49 001c 1968     		ldr	r1, [r3]
  50 001e 1248     		ldr	r0, .L4+12
  51 0020 FFF7FEFF 		bl	PID_setRef
  52              	.LVL0:
 184:vel_control_isr.c ****     
 185:vel_control_isr.c ****     if(actual_speed == 0){
  53              		.loc 1 185 0
  54 0024 2368     		ldr	r3, [r4]
  55 0026 13B9     		cbnz	r3, .L2
 186:vel_control_isr.c ****         speed_pid_.iTerm = 0;
  56              		.loc 1 186 0
  57 0028 0022     		movs	r2, #0
  58 002a 0F4B     		ldr	r3, .L4+12
  59 002c 9A61     		str	r2, [r3, #24]
  60              	.L2:
 187:vel_control_isr.c ****     }
 188:vel_control_isr.c ****     speed_pid_output = PID_calculatePID(&speed_pid_,actual_speed);
  61              		.loc 1 188 0
  62 002e 0C4B     		ldr	r3, .L4+4
  63 0030 1968     		ldr	r1, [r3]
  64 0032 0D48     		ldr	r0, .L4+12
  65 0034 FFF7FEFF 		bl	PID_calculatePID
  66              	.LVL1:
  67 0038 0C4B     		ldr	r3, .L4+16
  68 003a 1860     		str	r0, [r3]
 189:vel_control_isr.c ****     
 190:vel_control_isr.c ****     // maps the pid_output to a 8bit number for pwm control of motor
 191:vel_control_isr.c ****     _pid_out = fn_mapper_8b(speed_pid_output,0,10000,0,255);
  69              		.loc 1 191 0
  70 003c FF23     		movs	r3, #255
  71 003e 0093     		str	r3, [sp]
  72 0040 0023     		movs	r3, #0
  73 0042 42F21072 		movw	r2, #10000
  74 0046 1946     		mov	r1, r3
  75 0048 FFF7FEFF 		bl	fn_mapper_8b
  76              	.LVL2:
  77 004c C0B2     		uxtb	r0, r0
  78 004e 084B     		ldr	r3, .L4+20
  79 0050 1870     		strb	r0, [r3]
 192:vel_control_isr.c ****     //debug = _pid_out;
 193:vel_control_isr.c **** 
 194:vel_control_isr.c ****     #if defined(ANGLE_CONTROL) || defined(SPEED_CONTROL)
 195:vel_control_isr.c ****             VDAC8_Speed_SetValue((uint8)(_pid_out));
  80              		.loc 1 195 0
  81 0052 FFF7FEFF 		bl	VDAC8_Speed_SetValue
  82              	.LVL3:
 196:vel_control_isr.c ****     #endif
 197:vel_control_isr.c ****     
 198:vel_control_isr.c ****     /* `#END` */
 199:vel_control_isr.c **** }
  83              		.loc 1 199 0
  84 0056 02B0     		add	sp, sp, #8
  85              		.cfi_def_cfa_offset 8
  86              		@ sp needed
ARM GAS  C:\Users\growo\AppData\Local\Temp\ccHjzAm6.s 			page 6


  87 0058 10BD     		pop	{r4, pc}
  88              	.L5:
  89 005a 00BF     		.align	2
  90              	.L4:
  91 005c 00000000 		.word	t_ha
  92 0060 00000000 		.word	actual_speed
  93 0064 00000000 		.word	speed_ref
  94 0068 00000000 		.word	speed_pid_
  95 006c 00000000 		.word	speed_pid_output
  96 0070 00000000 		.word	_pid_out
  97              		.cfi_endproc
  98              	.LFE67:
  99              		.size	vel_control_isr_Interrupt, .-vel_control_isr_Interrupt
 100              		.section	.text.vel_control_isr_SetVector,"ax",%progbits
 101              		.align	2
 102              		.global	vel_control_isr_SetVector
 103              		.thumb
 104              		.thumb_func
 105              		.type	vel_control_isr_SetVector, %function
 106              	vel_control_isr_SetVector:
 107              	.LFB68:
 200:vel_control_isr.c **** 
 201:vel_control_isr.c **** 
 202:vel_control_isr.c **** /*******************************************************************************
 203:vel_control_isr.c **** * Function Name: vel_control_isr_SetVector
 204:vel_control_isr.c **** ********************************************************************************
 205:vel_control_isr.c **** *
 206:vel_control_isr.c **** * Summary:
 207:vel_control_isr.c **** *   Change the ISR vector for the Interrupt. Note calling vel_control_isr_Start
 208:vel_control_isr.c **** *   will override any effect this method would have had. To set the vector 
 209:vel_control_isr.c **** *   before the component has been started use vel_control_isr_StartEx instead.
 210:vel_control_isr.c **** * 
 211:vel_control_isr.c **** *   When defining ISR functions, the CY_ISR and CY_ISR_PROTO macros should be 
 212:vel_control_isr.c **** *   used to provide consistent definition across compilers:
 213:vel_control_isr.c **** *
 214:vel_control_isr.c **** *   Function definition example:
 215:vel_control_isr.c **** *   CY_ISR(MyISR)
 216:vel_control_isr.c **** *   {
 217:vel_control_isr.c **** *   }
 218:vel_control_isr.c **** *
 219:vel_control_isr.c **** *   Function prototype example:
 220:vel_control_isr.c **** *     CY_ISR_PROTO(MyISR);
 221:vel_control_isr.c **** *
 222:vel_control_isr.c **** * Parameters:
 223:vel_control_isr.c **** *   address: Address of the ISR to set in the interrupt vector table.
 224:vel_control_isr.c **** *
 225:vel_control_isr.c **** * Return:
 226:vel_control_isr.c **** *   None
 227:vel_control_isr.c **** *
 228:vel_control_isr.c **** *******************************************************************************/
 229:vel_control_isr.c **** void vel_control_isr_SetVector(cyisraddress address)
 230:vel_control_isr.c **** {
 108              		.loc 1 230 0
 109              		.cfi_startproc
 110              		@ args = 0, pretend = 0, frame = 0
 111              		@ frame_needed = 0, uses_anonymous_args = 0
 112              		@ link register save eliminated.
ARM GAS  C:\Users\growo\AppData\Local\Temp\ccHjzAm6.s 			page 7


 113              	.LVL4:
 231:vel_control_isr.c ****     cyisraddress * ramVectorTable;
 232:vel_control_isr.c **** 
 233:vel_control_isr.c ****     ramVectorTable = (cyisraddress *) *CYINT_VECT_TABLE;
 114              		.loc 1 233 0
 115 0000 014B     		ldr	r3, .L7
 116 0002 1B68     		ldr	r3, [r3]
 117              	.LVL5:
 234:vel_control_isr.c **** 
 235:vel_control_isr.c ****     ramVectorTable[CYINT_IRQ_BASE + (uint32)vel_control_isr__INTC_NUMBER] = address;
 118              		.loc 1 235 0
 119 0004 5866     		str	r0, [r3, #100]
 120 0006 7047     		bx	lr
 121              	.L8:
 122              		.align	2
 123              	.L7:
 124 0008 08ED00E0 		.word	-536810232
 125              		.cfi_endproc
 126              	.LFE68:
 127              		.size	vel_control_isr_SetVector, .-vel_control_isr_SetVector
 128              		.section	.text.vel_control_isr_GetVector,"ax",%progbits
 129              		.align	2
 130              		.global	vel_control_isr_GetVector
 131              		.thumb
 132              		.thumb_func
 133              		.type	vel_control_isr_GetVector, %function
 134              	vel_control_isr_GetVector:
 135              	.LFB69:
 236:vel_control_isr.c **** }
 237:vel_control_isr.c **** 
 238:vel_control_isr.c **** 
 239:vel_control_isr.c **** /*******************************************************************************
 240:vel_control_isr.c **** * Function Name: vel_control_isr_GetVector
 241:vel_control_isr.c **** ********************************************************************************
 242:vel_control_isr.c **** *
 243:vel_control_isr.c **** * Summary:
 244:vel_control_isr.c **** *   Gets the "address" of the current ISR vector for the Interrupt.
 245:vel_control_isr.c **** *
 246:vel_control_isr.c **** * Parameters:
 247:vel_control_isr.c **** *   None
 248:vel_control_isr.c **** *
 249:vel_control_isr.c **** * Return:
 250:vel_control_isr.c **** *   Address of the ISR in the interrupt vector table.
 251:vel_control_isr.c **** *
 252:vel_control_isr.c **** *******************************************************************************/
 253:vel_control_isr.c **** cyisraddress vel_control_isr_GetVector(void)
 254:vel_control_isr.c **** {
 136              		.loc 1 254 0
 137              		.cfi_startproc
 138              		@ args = 0, pretend = 0, frame = 0
 139              		@ frame_needed = 0, uses_anonymous_args = 0
 140              		@ link register save eliminated.
 255:vel_control_isr.c ****     cyisraddress * ramVectorTable;
 256:vel_control_isr.c **** 
 257:vel_control_isr.c ****     ramVectorTable = (cyisraddress *) *CYINT_VECT_TABLE;
 141              		.loc 1 257 0
 142 0000 014B     		ldr	r3, .L10
ARM GAS  C:\Users\growo\AppData\Local\Temp\ccHjzAm6.s 			page 8


 143 0002 1B68     		ldr	r3, [r3]
 144              	.LVL6:
 258:vel_control_isr.c **** 
 259:vel_control_isr.c ****     return ramVectorTable[CYINT_IRQ_BASE + (uint32)vel_control_isr__INTC_NUMBER];
 260:vel_control_isr.c **** }
 145              		.loc 1 260 0
 146 0004 586E     		ldr	r0, [r3, #100]
 147 0006 7047     		bx	lr
 148              	.L11:
 149              		.align	2
 150              	.L10:
 151 0008 08ED00E0 		.word	-536810232
 152              		.cfi_endproc
 153              	.LFE69:
 154              		.size	vel_control_isr_GetVector, .-vel_control_isr_GetVector
 155              		.section	.text.vel_control_isr_SetPriority,"ax",%progbits
 156              		.align	2
 157              		.global	vel_control_isr_SetPriority
 158              		.thumb
 159              		.thumb_func
 160              		.type	vel_control_isr_SetPriority, %function
 161              	vel_control_isr_SetPriority:
 162              	.LFB70:
 261:vel_control_isr.c **** 
 262:vel_control_isr.c **** 
 263:vel_control_isr.c **** /*******************************************************************************
 264:vel_control_isr.c **** * Function Name: vel_control_isr_SetPriority
 265:vel_control_isr.c **** ********************************************************************************
 266:vel_control_isr.c **** *
 267:vel_control_isr.c **** * Summary:
 268:vel_control_isr.c **** *   Sets the Priority of the Interrupt. 
 269:vel_control_isr.c **** *
 270:vel_control_isr.c **** *   Note calling vel_control_isr_Start or vel_control_isr_StartEx will 
 271:vel_control_isr.c **** *   override any effect this API would have had. This API should only be called
 272:vel_control_isr.c **** *   after vel_control_isr_Start or vel_control_isr_StartEx has been called. 
 273:vel_control_isr.c **** *   To set the initial priority for the component, use the Design-Wide Resources
 274:vel_control_isr.c **** *   Interrupt Editor.
 275:vel_control_isr.c **** *
 276:vel_control_isr.c **** *   Note This API has no effect on Non-maskable interrupt NMI).
 277:vel_control_isr.c **** *
 278:vel_control_isr.c **** * Parameters:
 279:vel_control_isr.c **** *   priority: Priority of the interrupt, 0 being the highest priority
 280:vel_control_isr.c **** *             PSoC 3 and PSoC 5LP: Priority is from 0 to 7.
 281:vel_control_isr.c **** *             PSoC 4: Priority is from 0 to 3.
 282:vel_control_isr.c **** *
 283:vel_control_isr.c **** * Return:
 284:vel_control_isr.c **** *   None
 285:vel_control_isr.c **** *
 286:vel_control_isr.c **** *******************************************************************************/
 287:vel_control_isr.c **** void vel_control_isr_SetPriority(uint8 priority)
 288:vel_control_isr.c **** {
 163              		.loc 1 288 0
 164              		.cfi_startproc
 165              		@ args = 0, pretend = 0, frame = 0
 166              		@ frame_needed = 0, uses_anonymous_args = 0
 167              		@ link register save eliminated.
 168              	.LVL7:
ARM GAS  C:\Users\growo\AppData\Local\Temp\ccHjzAm6.s 			page 9


 289:vel_control_isr.c ****     *vel_control_isr_INTC_PRIOR = priority << 5;
 169              		.loc 1 289 0
 170 0000 4001     		lsls	r0, r0, #5
 171              	.LVL8:
 172 0002 C0B2     		uxtb	r0, r0
 173 0004 014B     		ldr	r3, .L13
 174 0006 1870     		strb	r0, [r3]
 175 0008 7047     		bx	lr
 176              	.L14:
 177 000a 00BF     		.align	2
 178              	.L13:
 179 000c 09E400E0 		.word	-536812535
 180              		.cfi_endproc
 181              	.LFE70:
 182              		.size	vel_control_isr_SetPriority, .-vel_control_isr_SetPriority
 183              		.section	.text.vel_control_isr_GetPriority,"ax",%progbits
 184              		.align	2
 185              		.global	vel_control_isr_GetPriority
 186              		.thumb
 187              		.thumb_func
 188              		.type	vel_control_isr_GetPriority, %function
 189              	vel_control_isr_GetPriority:
 190              	.LFB71:
 290:vel_control_isr.c **** }
 291:vel_control_isr.c **** 
 292:vel_control_isr.c **** 
 293:vel_control_isr.c **** /*******************************************************************************
 294:vel_control_isr.c **** * Function Name: vel_control_isr_GetPriority
 295:vel_control_isr.c **** ********************************************************************************
 296:vel_control_isr.c **** *
 297:vel_control_isr.c **** * Summary:
 298:vel_control_isr.c **** *   Gets the Priority of the Interrupt.
 299:vel_control_isr.c **** *
 300:vel_control_isr.c **** * Parameters:
 301:vel_control_isr.c **** *   None
 302:vel_control_isr.c **** *
 303:vel_control_isr.c **** * Return:
 304:vel_control_isr.c **** *   Priority of the interrupt, 0 being the highest priority
 305:vel_control_isr.c **** *    PSoC 3 and PSoC 5LP: Priority is from 0 to 7.
 306:vel_control_isr.c **** *    PSoC 4: Priority is from 0 to 3.
 307:vel_control_isr.c **** *
 308:vel_control_isr.c **** *******************************************************************************/
 309:vel_control_isr.c **** uint8 vel_control_isr_GetPriority(void)
 310:vel_control_isr.c **** {
 191              		.loc 1 310 0
 192              		.cfi_startproc
 193              		@ args = 0, pretend = 0, frame = 0
 194              		@ frame_needed = 0, uses_anonymous_args = 0
 195              		@ link register save eliminated.
 311:vel_control_isr.c ****     uint8 priority;
 312:vel_control_isr.c **** 
 313:vel_control_isr.c **** 
 314:vel_control_isr.c ****     priority = *vel_control_isr_INTC_PRIOR >> 5;
 196              		.loc 1 314 0
 197 0000 014B     		ldr	r3, .L16
 198 0002 1878     		ldrb	r0, [r3]	@ zero_extendqisi2
 199              	.LVL9:
ARM GAS  C:\Users\growo\AppData\Local\Temp\ccHjzAm6.s 			page 10


 315:vel_control_isr.c **** 
 316:vel_control_isr.c ****     return priority;
 317:vel_control_isr.c **** }
 200              		.loc 1 317 0
 201 0004 4009     		lsrs	r0, r0, #5
 202              	.LVL10:
 203 0006 7047     		bx	lr
 204              	.L17:
 205              		.align	2
 206              	.L16:
 207 0008 09E400E0 		.word	-536812535
 208              		.cfi_endproc
 209              	.LFE71:
 210              		.size	vel_control_isr_GetPriority, .-vel_control_isr_GetPriority
 211              		.section	.text.vel_control_isr_Enable,"ax",%progbits
 212              		.align	2
 213              		.global	vel_control_isr_Enable
 214              		.thumb
 215              		.thumb_func
 216              		.type	vel_control_isr_Enable, %function
 217              	vel_control_isr_Enable:
 218              	.LFB72:
 318:vel_control_isr.c **** 
 319:vel_control_isr.c **** 
 320:vel_control_isr.c **** /*******************************************************************************
 321:vel_control_isr.c **** * Function Name: vel_control_isr_Enable
 322:vel_control_isr.c **** ********************************************************************************
 323:vel_control_isr.c **** *
 324:vel_control_isr.c **** * Summary:
 325:vel_control_isr.c **** *   Enables the interrupt to the interrupt controller. Do not call this function
 326:vel_control_isr.c **** *   unless ISR_Start() has been called or the functionality of the ISR_Start() 
 327:vel_control_isr.c **** *   function, which sets the vector and the priority, has been called.
 328:vel_control_isr.c **** *
 329:vel_control_isr.c **** * Parameters:
 330:vel_control_isr.c **** *   None
 331:vel_control_isr.c **** *
 332:vel_control_isr.c **** * Return:
 333:vel_control_isr.c **** *   None
 334:vel_control_isr.c **** *
 335:vel_control_isr.c **** *******************************************************************************/
 336:vel_control_isr.c **** void vel_control_isr_Enable(void)
 337:vel_control_isr.c **** {
 219              		.loc 1 337 0
 220              		.cfi_startproc
 221              		@ args = 0, pretend = 0, frame = 0
 222              		@ frame_needed = 0, uses_anonymous_args = 0
 223              		@ link register save eliminated.
 338:vel_control_isr.c ****     /* Enable the general interrupt. */
 339:vel_control_isr.c ****     *vel_control_isr_INTC_SET_EN = vel_control_isr__INTC_MASK;
 224              		.loc 1 339 0
 225 0000 4FF40072 		mov	r2, #512
 226 0004 014B     		ldr	r3, .L19
 227 0006 1A60     		str	r2, [r3]
 228 0008 7047     		bx	lr
 229              	.L20:
 230 000a 00BF     		.align	2
 231              	.L19:
ARM GAS  C:\Users\growo\AppData\Local\Temp\ccHjzAm6.s 			page 11


 232 000c 00E100E0 		.word	-536813312
 233              		.cfi_endproc
 234              	.LFE72:
 235              		.size	vel_control_isr_Enable, .-vel_control_isr_Enable
 236              		.section	.text.vel_control_isr_GetState,"ax",%progbits
 237              		.align	2
 238              		.global	vel_control_isr_GetState
 239              		.thumb
 240              		.thumb_func
 241              		.type	vel_control_isr_GetState, %function
 242              	vel_control_isr_GetState:
 243              	.LFB73:
 340:vel_control_isr.c **** }
 341:vel_control_isr.c **** 
 342:vel_control_isr.c **** 
 343:vel_control_isr.c **** /*******************************************************************************
 344:vel_control_isr.c **** * Function Name: vel_control_isr_GetState
 345:vel_control_isr.c **** ********************************************************************************
 346:vel_control_isr.c **** *
 347:vel_control_isr.c **** * Summary:
 348:vel_control_isr.c **** *   Gets the state (enabled, disabled) of the Interrupt.
 349:vel_control_isr.c **** *
 350:vel_control_isr.c **** * Parameters:
 351:vel_control_isr.c **** *   None
 352:vel_control_isr.c **** *
 353:vel_control_isr.c **** * Return:
 354:vel_control_isr.c **** *   1 if enabled, 0 if disabled.
 355:vel_control_isr.c **** *
 356:vel_control_isr.c **** *******************************************************************************/
 357:vel_control_isr.c **** uint8 vel_control_isr_GetState(void)
 358:vel_control_isr.c **** {
 244              		.loc 1 358 0
 245              		.cfi_startproc
 246              		@ args = 0, pretend = 0, frame = 0
 247              		@ frame_needed = 0, uses_anonymous_args = 0
 248              		@ link register save eliminated.
 359:vel_control_isr.c ****     /* Get the state of the general interrupt. */
 360:vel_control_isr.c ****     return ((*vel_control_isr_INTC_SET_EN & (uint32)vel_control_isr__INTC_MASK) != 0u) ? 1u:0u;
 249              		.loc 1 360 0
 250 0000 044B     		ldr	r3, .L24
 251 0002 1B68     		ldr	r3, [r3]
 252 0004 13F4007F 		tst	r3, #512
 253 0008 01D0     		beq	.L23
 254 000a 0120     		movs	r0, #1
 255 000c 7047     		bx	lr
 256              	.L23:
 257 000e 0020     		movs	r0, #0
 361:vel_control_isr.c **** }
 258              		.loc 1 361 0
 259 0010 7047     		bx	lr
 260              	.L25:
 261 0012 00BF     		.align	2
 262              	.L24:
 263 0014 00E100E0 		.word	-536813312
 264              		.cfi_endproc
 265              	.LFE73:
 266              		.size	vel_control_isr_GetState, .-vel_control_isr_GetState
ARM GAS  C:\Users\growo\AppData\Local\Temp\ccHjzAm6.s 			page 12


 267              		.section	.text.vel_control_isr_Disable,"ax",%progbits
 268              		.align	2
 269              		.global	vel_control_isr_Disable
 270              		.thumb
 271              		.thumb_func
 272              		.type	vel_control_isr_Disable, %function
 273              	vel_control_isr_Disable:
 274              	.LFB74:
 362:vel_control_isr.c **** 
 363:vel_control_isr.c **** 
 364:vel_control_isr.c **** /*******************************************************************************
 365:vel_control_isr.c **** * Function Name: vel_control_isr_Disable
 366:vel_control_isr.c **** ********************************************************************************
 367:vel_control_isr.c **** *
 368:vel_control_isr.c **** * Summary:
 369:vel_control_isr.c **** *   Disables the Interrupt in the interrupt controller.
 370:vel_control_isr.c **** *
 371:vel_control_isr.c **** * Parameters:
 372:vel_control_isr.c **** *   None
 373:vel_control_isr.c **** *
 374:vel_control_isr.c **** * Return:
 375:vel_control_isr.c **** *   None
 376:vel_control_isr.c **** *
 377:vel_control_isr.c **** *******************************************************************************/
 378:vel_control_isr.c **** void vel_control_isr_Disable(void)
 379:vel_control_isr.c **** {
 275              		.loc 1 379 0
 276              		.cfi_startproc
 277              		@ args = 0, pretend = 0, frame = 0
 278              		@ frame_needed = 0, uses_anonymous_args = 0
 279              		@ link register save eliminated.
 380:vel_control_isr.c ****     /* Disable the general interrupt. */
 381:vel_control_isr.c ****     *vel_control_isr_INTC_CLR_EN = vel_control_isr__INTC_MASK;
 280              		.loc 1 381 0
 281 0000 4FF40072 		mov	r2, #512
 282 0004 014B     		ldr	r3, .L27
 283 0006 1A60     		str	r2, [r3]
 284 0008 7047     		bx	lr
 285              	.L28:
 286 000a 00BF     		.align	2
 287              	.L27:
 288 000c 80E100E0 		.word	-536813184
 289              		.cfi_endproc
 290              	.LFE74:
 291              		.size	vel_control_isr_Disable, .-vel_control_isr_Disable
 292              		.section	.text.vel_control_isr_Start,"ax",%progbits
 293              		.align	2
 294              		.global	vel_control_isr_Start
 295              		.thumb
 296              		.thumb_func
 297              		.type	vel_control_isr_Start, %function
 298              	vel_control_isr_Start:
 299              	.LFB64:
  74:vel_control_isr.c ****     /* For all we know the interrupt is active. */
 300              		.loc 1 74 0
 301              		.cfi_startproc
 302              		@ args = 0, pretend = 0, frame = 0
ARM GAS  C:\Users\growo\AppData\Local\Temp\ccHjzAm6.s 			page 13


 303              		@ frame_needed = 0, uses_anonymous_args = 0
 304 0000 08B5     		push	{r3, lr}
 305              		.cfi_def_cfa_offset 8
 306              		.cfi_offset 3, -8
 307              		.cfi_offset 14, -4
  76:vel_control_isr.c **** 
 308              		.loc 1 76 0
 309 0002 FFF7FEFF 		bl	vel_control_isr_Disable
 310              	.LVL11:
  79:vel_control_isr.c **** 
 311              		.loc 1 79 0
 312 0006 0448     		ldr	r0, .L31
 313 0008 FFF7FEFF 		bl	vel_control_isr_SetVector
 314              	.LVL12:
  82:vel_control_isr.c **** 
 315              		.loc 1 82 0
 316 000c 0720     		movs	r0, #7
 317 000e FFF7FEFF 		bl	vel_control_isr_SetPriority
 318              	.LVL13:
  85:vel_control_isr.c **** }
 319              		.loc 1 85 0
 320 0012 FFF7FEFF 		bl	vel_control_isr_Enable
 321              	.LVL14:
 322 0016 08BD     		pop	{r3, pc}
 323              	.L32:
 324              		.align	2
 325              	.L31:
 326 0018 00000000 		.word	vel_control_isr_Interrupt
 327              		.cfi_endproc
 328              	.LFE64:
 329              		.size	vel_control_isr_Start, .-vel_control_isr_Start
 330              		.section	.text.vel_control_isr_StartEx,"ax",%progbits
 331              		.align	2
 332              		.global	vel_control_isr_StartEx
 333              		.thumb
 334              		.thumb_func
 335              		.type	vel_control_isr_StartEx, %function
 336              	vel_control_isr_StartEx:
 337              	.LFB65:
 117:vel_control_isr.c ****     /* For all we know the interrupt is active. */
 338              		.loc 1 117 0
 339              		.cfi_startproc
 340              		@ args = 0, pretend = 0, frame = 0
 341              		@ frame_needed = 0, uses_anonymous_args = 0
 342              	.LVL15:
 343 0000 10B5     		push	{r4, lr}
 344              		.cfi_def_cfa_offset 8
 345              		.cfi_offset 4, -8
 346              		.cfi_offset 14, -4
 347 0002 0446     		mov	r4, r0
 119:vel_control_isr.c **** 
 348              		.loc 1 119 0
 349 0004 FFF7FEFF 		bl	vel_control_isr_Disable
 350              	.LVL16:
 122:vel_control_isr.c **** 
 351              		.loc 1 122 0
 352 0008 2046     		mov	r0, r4
ARM GAS  C:\Users\growo\AppData\Local\Temp\ccHjzAm6.s 			page 14


 353 000a FFF7FEFF 		bl	vel_control_isr_SetVector
 354              	.LVL17:
 125:vel_control_isr.c **** 
 355              		.loc 1 125 0
 356 000e 0720     		movs	r0, #7
 357 0010 FFF7FEFF 		bl	vel_control_isr_SetPriority
 358              	.LVL18:
 128:vel_control_isr.c **** }
 359              		.loc 1 128 0
 360 0014 FFF7FEFF 		bl	vel_control_isr_Enable
 361              	.LVL19:
 362 0018 10BD     		pop	{r4, pc}
 363              		.cfi_endproc
 364              	.LFE65:
 365              		.size	vel_control_isr_StartEx, .-vel_control_isr_StartEx
 366 001a 00BF     		.section	.text.vel_control_isr_Stop,"ax",%progbits
 367              		.align	2
 368              		.global	vel_control_isr_Stop
 369              		.thumb
 370              		.thumb_func
 371              		.type	vel_control_isr_Stop, %function
 372              	vel_control_isr_Stop:
 373              	.LFB66:
 147:vel_control_isr.c ****     /* Disable this interrupt. */
 374              		.loc 1 147 0
 375              		.cfi_startproc
 376              		@ args = 0, pretend = 0, frame = 0
 377              		@ frame_needed = 0, uses_anonymous_args = 0
 378 0000 08B5     		push	{r3, lr}
 379              		.cfi_def_cfa_offset 8
 380              		.cfi_offset 3, -8
 381              		.cfi_offset 14, -4
 149:vel_control_isr.c **** 
 382              		.loc 1 149 0
 383 0002 FFF7FEFF 		bl	vel_control_isr_Disable
 384              	.LVL20:
 152:vel_control_isr.c **** }
 385              		.loc 1 152 0
 386 0006 0248     		ldr	r0, .L37
 387 0008 FFF7FEFF 		bl	vel_control_isr_SetVector
 388              	.LVL21:
 389 000c 08BD     		pop	{r3, pc}
 390              	.L38:
 391 000e 00BF     		.align	2
 392              	.L37:
 393 0010 00000000 		.word	IntDefaultHandler
 394              		.cfi_endproc
 395              	.LFE66:
 396              		.size	vel_control_isr_Stop, .-vel_control_isr_Stop
 397              		.section	.text.vel_control_isr_SetPending,"ax",%progbits
 398              		.align	2
 399              		.global	vel_control_isr_SetPending
 400              		.thumb
 401              		.thumb_func
 402              		.type	vel_control_isr_SetPending, %function
 403              	vel_control_isr_SetPending:
 404              	.LFB75:
ARM GAS  C:\Users\growo\AppData\Local\Temp\ccHjzAm6.s 			page 15


 382:vel_control_isr.c **** }
 383:vel_control_isr.c **** 
 384:vel_control_isr.c **** 
 385:vel_control_isr.c **** /*******************************************************************************
 386:vel_control_isr.c **** * Function Name: vel_control_isr_SetPending
 387:vel_control_isr.c **** ********************************************************************************
 388:vel_control_isr.c **** *
 389:vel_control_isr.c **** * Summary:
 390:vel_control_isr.c **** *   Causes the Interrupt to enter the pending state, a software method of
 391:vel_control_isr.c **** *   generating the interrupt.
 392:vel_control_isr.c **** *
 393:vel_control_isr.c **** * Parameters:
 394:vel_control_isr.c **** *   None
 395:vel_control_isr.c **** *
 396:vel_control_isr.c **** * Return:
 397:vel_control_isr.c **** *   None
 398:vel_control_isr.c **** *
 399:vel_control_isr.c **** * Side Effects:
 400:vel_control_isr.c **** *   If interrupts are enabled and the interrupt is set up properly, the ISR is
 401:vel_control_isr.c **** *   entered (depending on the priority of this interrupt and other pending 
 402:vel_control_isr.c **** *   interrupts).
 403:vel_control_isr.c **** *
 404:vel_control_isr.c **** *******************************************************************************/
 405:vel_control_isr.c **** void vel_control_isr_SetPending(void)
 406:vel_control_isr.c **** {
 405              		.loc 1 406 0
 406              		.cfi_startproc
 407              		@ args = 0, pretend = 0, frame = 0
 408              		@ frame_needed = 0, uses_anonymous_args = 0
 409              		@ link register save eliminated.
 407:vel_control_isr.c ****     *vel_control_isr_INTC_SET_PD = vel_control_isr__INTC_MASK;
 410              		.loc 1 407 0
 411 0000 4FF40072 		mov	r2, #512
 412 0004 014B     		ldr	r3, .L40
 413 0006 1A60     		str	r2, [r3]
 414 0008 7047     		bx	lr
 415              	.L41:
 416 000a 00BF     		.align	2
 417              	.L40:
 418 000c 00E200E0 		.word	-536813056
 419              		.cfi_endproc
 420              	.LFE75:
 421              		.size	vel_control_isr_SetPending, .-vel_control_isr_SetPending
 422              		.section	.text.vel_control_isr_ClearPending,"ax",%progbits
 423              		.align	2
 424              		.global	vel_control_isr_ClearPending
 425              		.thumb
 426              		.thumb_func
 427              		.type	vel_control_isr_ClearPending, %function
 428              	vel_control_isr_ClearPending:
 429              	.LFB76:
 408:vel_control_isr.c **** }
 409:vel_control_isr.c **** 
 410:vel_control_isr.c **** 
 411:vel_control_isr.c **** /*******************************************************************************
 412:vel_control_isr.c **** * Function Name: vel_control_isr_ClearPending
 413:vel_control_isr.c **** ********************************************************************************
ARM GAS  C:\Users\growo\AppData\Local\Temp\ccHjzAm6.s 			page 16


 414:vel_control_isr.c **** *
 415:vel_control_isr.c **** * Summary:
 416:vel_control_isr.c **** *   Clears a pending interrupt in the interrupt controller.
 417:vel_control_isr.c **** *
 418:vel_control_isr.c **** *   Note Some interrupt sources are clear-on-read and require the block 
 419:vel_control_isr.c **** *   interrupt/status register to be read/cleared with the appropriate block API 
 420:vel_control_isr.c **** *   (GPIO, UART, and so on). Otherwise the ISR will continue to remain in 
 421:vel_control_isr.c **** *   pending state even though the interrupt itself is cleared using this API.
 422:vel_control_isr.c **** *
 423:vel_control_isr.c **** * Parameters:
 424:vel_control_isr.c **** *   None
 425:vel_control_isr.c **** *
 426:vel_control_isr.c **** * Return:
 427:vel_control_isr.c **** *   None
 428:vel_control_isr.c **** *
 429:vel_control_isr.c **** *******************************************************************************/
 430:vel_control_isr.c **** void vel_control_isr_ClearPending(void)
 431:vel_control_isr.c **** {
 430              		.loc 1 431 0
 431              		.cfi_startproc
 432              		@ args = 0, pretend = 0, frame = 0
 433              		@ frame_needed = 0, uses_anonymous_args = 0
 434              		@ link register save eliminated.
 432:vel_control_isr.c ****     *vel_control_isr_INTC_CLR_PD = vel_control_isr__INTC_MASK;
 435              		.loc 1 432 0
 436 0000 4FF40072 		mov	r2, #512
 437 0004 014B     		ldr	r3, .L43
 438 0006 1A60     		str	r2, [r3]
 439 0008 7047     		bx	lr
 440              	.L44:
 441 000a 00BF     		.align	2
 442              	.L43:
 443 000c 80E200E0 		.word	-536812928
 444              		.cfi_endproc
 445              	.LFE76:
 446              		.size	vel_control_isr_ClearPending, .-vel_control_isr_ClearPending
 447              		.comm	_pid_out,1,1
 448              		.comm	speed_pid_output,4,4
 449              		.comm	speed_pid_,44,4
 450              		.comm	_pVal,1,1
 451              		.comm	actual_speed,4,4
 452              		.comm	speed_ref,4,4
 453              		.comm	t_ha,4,4
 454              		.comm	_state_,4,4
 455              		.comm	_uart_Reset,1,1
 456              		.comm	SendEmulatedData,1,1
 457              		.comm	SendSingleByte,1,1
 458              		.comm	ContinuouslySendData,1,1
 459              		.comm	Ch,1,1
 460              		.comm	PB,16,4
 461              		.comm	RB,20,4
 462              		.text
 463              	.Letext0:
 464              		.file 2 "c:\\program files (x86)\\cypress\\psoc creator\\4.1\\psoc creator\\import\\gnu\\arm\\5.4.
 465              		.file 3 "c:\\program files (x86)\\cypress\\psoc creator\\4.1\\psoc creator\\import\\gnu\\arm\\5.4.
 466              		.file 4 "Generated_Source\\PSoC5/cytypes.h"
 467              		.file 5 "./pid.h"
ARM GAS  C:\Users\growo\AppData\Local\Temp\ccHjzAm6.s 			page 17


 468              		.file 6 "./myUART.h"
 469              		.file 7 "./global.h"
 470              		.file 8 "Generated_Source\\PSoC5/core_cm3.h"
 471              		.file 9 "Generated_Source\\PSoC5/VDAC8_Speed.h"