ARM GAS  C:\Users\GONZAL~1\AppData\Local\Temp\ccC27lyg.s 			page 1


   1              		.syntax unified
   2              		.cpu cortex-m3
   3              		.fpu softvfp
   4              		.eabi_attribute 20, 1
   5              		.eabi_attribute 21, 1
   6              		.eabi_attribute 23, 3
   7              		.eabi_attribute 24, 1
   8              		.eabi_attribute 25, 1
   9              		.eabi_attribute 26, 1
  10              		.eabi_attribute 30, 1
  11              		.eabi_attribute 34, 1
  12              		.eabi_attribute 18, 4
  13              		.thumb
  14              		.syntax unified
  15              		.file	"main.c"
  16              		.text
  17              	.Ltext0:
  18              		.cfi_sections	.debug_frame
  19              		.section	.text.InitializeHardware,"ax",%progbits
  20              		.align	2
  21              		.global	InitializeHardware
  22              		.thumb
  23              		.thumb_func
  24              		.type	InitializeHardware, %function
  25              	InitializeHardware:
  26              	.LFB64:
  27              		.file 1 "main.c"
   1:main.c        **** /* ========================================
   2:main.c        ****  *
   3:main.c        ****  * Copyright YOUR COMPANY, THE YEAR
   4:main.c        ****  * All Rights Reserved
   5:main.c        ****  * UNPUBLISHED, LICENSED SOFTWARE.
   6:main.c        ****  *
   7:main.c        ****  * CONFIDENTIAL AND PROPRIETARY INFORMATION
   8:main.c        ****  * WHICH IS THE PROPERTY OF your company.
   9:main.c        ****  *
  10:main.c        ****  * ========================================
  11:main.c        **** */
  12:main.c        **** #include "project.h"
  13:main.c        **** #include "myUART.h"
  14:main.c        **** #include "string.h"
  15:main.c        **** #include "stdlib.h"
  16:main.c        **** #include "stdio.h"
  17:main.c        **** 
  18:main.c        **** #define TRANSMIT_BUFFER_SIZE 16
  19:main.c        **** #define FALSE 0
  20:main.c        **** 
  21:main.c        **** char msg[TRANSMIT_BUFFER_SIZE];
  22:main.c        **** 
  23:main.c        **** #define forever 1
  24:main.c        ****     //buffer to hold application settings
  25:main.c        ****     typedef struct TParamBuffer{
  26:main.c        ****         char* cmd;  //command
  27:main.c        ****         int pVal,iVal,dVal;   //int param
  28:main.c        ****     } ParamBuffer;  //settings
  29:main.c        ****     
  30:main.c        ****     volatile ParamBuffer PB;     //volatile struct TParamBuffer PB;
ARM GAS  C:\Users\GONZAL~1\AppData\Local\Temp\ccC27lyg.s 			page 2


  31:main.c        **** 
  32:main.c        **** void ProcessCommandMsg(void);// Process received command (do something...)
  33:main.c        **** int16 * StoreResults();
  34:main.c        **** 
  35:main.c        **** #define NUM_SENSORS 6
  36:main.c        **** int16 * TS_array;
  37:main.c        **** 
  38:main.c        **** void InitializeHardware(void){
  28              		.loc 1 38 0
  29              		.cfi_startproc
  30              		@ args = 0, pretend = 0, frame = 0
  31              		@ frame_needed = 0, uses_anonymous_args = 0
  32 0000 08B5     		push	{r3, lr}
  33              		.cfi_def_cfa_offset 8
  34              		.cfi_offset 3, -8
  35              		.cfi_offset 14, -4
  39:main.c        ****     
  40:main.c        ****     RxInt_StartEx(MyRxInt);
  36              		.loc 1 40 0
  37 0002 0948     		ldr	r0, .L3
  38 0004 FFF7FEFF 		bl	RxInt_StartEx
  39              	.LVL0:
  41:main.c        ****     ADC_TS_IRQ_Start();
  40              		.loc 1 41 0
  41 0008 FFF7FEFF 		bl	ADC_TS_IRQ_Start
  42              	.LVL1:
  42:main.c        ****       
  43:main.c        ****     ADC_TS_Start();
  43              		.loc 1 43 0
  44 000c FFF7FEFF 		bl	ADC_TS_Start
  45              	.LVL2:
  44:main.c        ****     UART_Start();    
  46              		.loc 1 44 0
  47 0010 FFF7FEFF 		bl	UART_Start
  48              	.LVL3:
  45:main.c        ****     CyDelay(250);
  49              		.loc 1 45 0
  50 0014 FA20     		movs	r0, #250
  51 0016 FFF7FEFF 		bl	CyDelay
  52              	.LVL4:
  46:main.c        ****     UART_PutString("&UART Test\r\n");
  53              		.loc 1 46 0
  54 001a 0448     		ldr	r0, .L3+4
  55 001c FFF7FEFF 		bl	UART_PutString
  56              	.LVL5:
  47:main.c        ****     
  48:main.c        ****     ADC_TS_StartConvert();
  57              		.loc 1 48 0
  58 0020 FFF7FEFF 		bl	ADC_TS_StartConvert
  59              	.LVL6:
  60 0024 08BD     		pop	{r3, pc}
  61              	.L4:
  62 0026 00BF     		.align	2
  63              	.L3:
  64 0028 00000000 		.word	MyRxInt
  65 002c 00000000 		.word	.LC0
  66              		.cfi_endproc
ARM GAS  C:\Users\GONZAL~1\AppData\Local\Temp\ccC27lyg.s 			page 3


  67              	.LFE64:
  68              		.size	InitializeHardware, .-InitializeHardware
  69              		.section	.text.StoreResults,"ax",%progbits
  70              		.align	2
  71              		.global	StoreResults
  72              		.thumb
  73              		.thumb_func
  74              		.type	StoreResults, %function
  75              	StoreResults:
  76              	.LFB66:
  49:main.c        **** }
  50:main.c        **** 
  51:main.c        **** int main(void){
  52:main.c        **** 
  53:main.c        ****     CyGlobalIntEnable; /* Enable global interrupts. */
  54:main.c        ****     InitializeHardware();
  55:main.c        ****     
  56:main.c        ****     for(;;)
  57:main.c        ****     {
  58:main.c        ****         while(IsCharReady()){
  59:main.c        ****             if(GetRxStr()){
  60:main.c        ****                 ProcessCommandMsg();
  61:main.c        ****             }   
  62:main.c        ****         }
  63:main.c        ****         if(ADC_TS_IsEndConversion(ADC_TS_RETURN_STATUS)!=0){
  64:main.c        ****             TS_array = StoreResults();
  65:main.c        ****         }
  66:main.c        ****         sprintf(msg,"1: %d\t2: %d\r\n",TS_array[0],TS_array[1]);
  67:main.c        ****         UART_PutString(msg);
  68:main.c        ****         CyDelay(10);
  69:main.c        ****     }
  70:main.c        **** }
  71:main.c        **** 
  72:main.c        **** int16 * StoreResults()
  73:main.c        **** {
  77              		.loc 1 73 0
  78              		.cfi_startproc
  79              		@ args = 0, pretend = 0, frame = 0
  80              		@ frame_needed = 0, uses_anonymous_args = 0
  81 0000 10B5     		push	{r4, lr}
  82              		.cfi_def_cfa_offset 8
  83              		.cfi_offset 4, -8
  84              		.cfi_offset 14, -4
  85              	.LVL7:
  74:main.c        **** 	uint16 i;
  75:main.c        ****     static int16 dest[NUM_SENSORS];
  76:main.c        **** 	
  77:main.c        **** 	for (i = 0; i < NUM_SENSORS; i++) {
  86              		.loc 1 77 0
  87 0002 0024     		movs	r4, #0
  88 0004 07E0     		b	.L6
  89              	.LVL8:
  90              	.L7:
  78:main.c        **** 		dest[i] = ADC_TS_GetResult16(i);
  91              		.loc 1 78 0 discriminator 3
  92 0006 2046     		mov	r0, r4
  93 0008 FFF7FEFF 		bl	ADC_TS_GetResult16
ARM GAS  C:\Users\GONZAL~1\AppData\Local\Temp\ccC27lyg.s 			page 4


  94              	.LVL9:
  95 000c 044B     		ldr	r3, .L9
  96 000e 23F81400 		strh	r0, [r3, r4, lsl #1]	@ movhi
  77:main.c        **** 		dest[i] = ADC_TS_GetResult16(i);
  97              		.loc 1 77 0 discriminator 3
  98 0012 0134     		adds	r4, r4, #1
  99              	.LVL10:
 100 0014 A4B2     		uxth	r4, r4
 101              	.LVL11:
 102              	.L6:
  77:main.c        **** 		dest[i] = ADC_TS_GetResult16(i);
 103              		.loc 1 77 0 is_stmt 0 discriminator 1
 104 0016 052C     		cmp	r4, #5
 105 0018 F5D9     		bls	.L7
  79:main.c        **** 	}
  80:main.c        ****     return dest;
  81:main.c        **** }
 106              		.loc 1 81 0 is_stmt 1
 107 001a 0148     		ldr	r0, .L9
 108 001c 10BD     		pop	{r4, pc}
 109              	.LVL12:
 110              	.L10:
 111 001e 00BF     		.align	2
 112              	.L9:
 113 0020 00000000 		.word	.LANCHOR0
 114              		.cfi_endproc
 115              	.LFE66:
 116              		.size	StoreResults, .-StoreResults
 117              		.section	.text.ProcessCommandMsg,"ax",%progbits
 118              		.align	2
 119              		.global	ProcessCommandMsg
 120              		.thumb
 121              		.thumb_func
 122              		.type	ProcessCommandMsg, %function
 123              	ProcessCommandMsg:
 124              	.LFB67:
  82:main.c        **** 
  83:main.c        **** void ProcessCommandMsg(void){    
 125              		.loc 1 83 0
 126              		.cfi_startproc
 127              		@ args = 0, pretend = 0, frame = 0
 128              		@ frame_needed = 0, uses_anonymous_args = 0
 129 0000 38B5     		push	{r3, r4, r5, lr}
 130              		.cfi_def_cfa_offset 16
 131              		.cfi_offset 3, -16
 132              		.cfi_offset 4, -12
 133              		.cfi_offset 5, -8
 134              		.cfi_offset 14, -4
  84:main.c        ****     //check received message for any valid command and execute it if necessary or report old value
  85:main.c        ****     //if command not recognized, then report error
  86:main.c        ****     //todo: add check for valid conversion string->value
  87:main.c        ****      
  88:main.c        ****     //sprintf(strMsg1,"%s\r", RB.RxStr); UART_PutString(strMsg1);
  89:main.c        ****    
  90:main.c        ****     //todo: ther are problems if terminator is "\r\n"
  91:main.c        ****     
  92:main.c        ****     if (RB.cmd == 'P'){
ARM GAS  C:\Users\GONZAL~1\AppData\Local\Temp\ccC27lyg.s 			page 5


 135              		.loc 1 92 0
 136 0002 244B     		ldr	r3, .L16
 137 0004 1B78     		ldrb	r3, [r3]	@ zero_extendqisi2
 138 0006 502B     		cmp	r3, #80
 139 0008 13D1     		bne	.L12
  93:main.c        ****         if(strlen(RB.valstr) > 0){
 140              		.loc 1 93 0
 141 000a 224B     		ldr	r3, .L16
 142 000c 5B78     		ldrb	r3, [r3, #1]	@ zero_extendqisi2
 143 000e 83B1     		cbz	r3, .L12
  94:main.c        ****             PB.pVal = atoi(RB.valstr);
 144              		.loc 1 94 0
 145 0010 214C     		ldr	r4, .L16+4
 146 0012 2046     		mov	r0, r4
 147 0014 FFF7FEFF 		bl	atoi
 148              	.LVL13:
 149 0018 204B     		ldr	r3, .L16+8
 150 001a 5860     		str	r0, [r3, #4]
  95:main.c        ****             sprintf(msg,"&%c: %s\r\n",RB.cmd,RB.valstr);
 151              		.loc 1 95 0
 152 001c 204D     		ldr	r5, .L16+12
 153 001e 2346     		mov	r3, r4
 154 0020 14F8012C 		ldrb	r2, [r4, #-1]	@ zero_extendqisi2
 155 0024 1F49     		ldr	r1, .L16+16
 156 0026 2846     		mov	r0, r5
 157 0028 FFF7FEFF 		bl	sprintf
 158              	.LVL14:
  96:main.c        ****             UART_PutString(msg);
 159              		.loc 1 96 0
 160 002c 2846     		mov	r0, r5
 161 002e FFF7FEFF 		bl	UART_PutString
 162              	.LVL15:
 163              	.L12:
  97:main.c        ****         }
  98:main.c        ****     }
  99:main.c        ****     if (RB.cmd == 'I'){
 164              		.loc 1 99 0
 165 0032 184B     		ldr	r3, .L16
 166 0034 1B78     		ldrb	r3, [r3]	@ zero_extendqisi2
 167 0036 492B     		cmp	r3, #73
 168 0038 13D1     		bne	.L13
 100:main.c        ****         if(strlen(RB.valstr) > 0){
 169              		.loc 1 100 0
 170 003a 164B     		ldr	r3, .L16
 171 003c 5B78     		ldrb	r3, [r3, #1]	@ zero_extendqisi2
 172 003e 83B1     		cbz	r3, .L13
 101:main.c        ****             PB.iVal = atoi(RB.valstr);
 173              		.loc 1 101 0
 174 0040 154C     		ldr	r4, .L16+4
 175 0042 2046     		mov	r0, r4
 176 0044 FFF7FEFF 		bl	atoi
 177              	.LVL16:
 178 0048 144B     		ldr	r3, .L16+8
 179 004a 9860     		str	r0, [r3, #8]
 102:main.c        ****             sprintf(msg,"&%c: %s\r\n",RB.cmd,RB.valstr);
 180              		.loc 1 102 0
 181 004c 144D     		ldr	r5, .L16+12
ARM GAS  C:\Users\GONZAL~1\AppData\Local\Temp\ccC27lyg.s 			page 6


 182 004e 2346     		mov	r3, r4
 183 0050 14F8012C 		ldrb	r2, [r4, #-1]	@ zero_extendqisi2
 184 0054 1349     		ldr	r1, .L16+16
 185 0056 2846     		mov	r0, r5
 186 0058 FFF7FEFF 		bl	sprintf
 187              	.LVL17:
 103:main.c        ****             UART_PutString(msg);
 188              		.loc 1 103 0
 189 005c 2846     		mov	r0, r5
 190 005e FFF7FEFF 		bl	UART_PutString
 191              	.LVL18:
 192              	.L13:
 104:main.c        ****         }
 105:main.c        ****     }
 106:main.c        ****     if (RB.cmd == 'D'){
 193              		.loc 1 106 0
 194 0062 0C4B     		ldr	r3, .L16
 195 0064 1B78     		ldrb	r3, [r3]	@ zero_extendqisi2
 196 0066 442B     		cmp	r3, #68
 197 0068 13D1     		bne	.L11
 107:main.c        ****         if(strlen(RB.valstr) > 0){
 198              		.loc 1 107 0
 199 006a 0A4B     		ldr	r3, .L16
 200 006c 5B78     		ldrb	r3, [r3, #1]	@ zero_extendqisi2
 201 006e 83B1     		cbz	r3, .L11
 108:main.c        ****             PB.dVal = atoi(RB.valstr);
 202              		.loc 1 108 0
 203 0070 094C     		ldr	r4, .L16+4
 204 0072 2046     		mov	r0, r4
 205 0074 FFF7FEFF 		bl	atoi
 206              	.LVL19:
 207 0078 084B     		ldr	r3, .L16+8
 208 007a D860     		str	r0, [r3, #12]
 109:main.c        ****             sprintf(msg,"&%c: %s\r\n",RB.cmd,RB.valstr);
 209              		.loc 1 109 0
 210 007c 084D     		ldr	r5, .L16+12
 211 007e 2346     		mov	r3, r4
 212 0080 14F8012C 		ldrb	r2, [r4, #-1]	@ zero_extendqisi2
 213 0084 0749     		ldr	r1, .L16+16
 214 0086 2846     		mov	r0, r5
 215 0088 FFF7FEFF 		bl	sprintf
 216              	.LVL20:
 110:main.c        ****             UART_PutString(msg);
 217              		.loc 1 110 0
 218 008c 2846     		mov	r0, r5
 219 008e FFF7FEFF 		bl	UART_PutString
 220              	.LVL21:
 221              	.L11:
 222 0092 38BD     		pop	{r3, r4, r5, pc}
 223              	.L17:
 224              		.align	2
 225              	.L16:
 226 0094 00000000 		.word	RB
 227 0098 01000000 		.word	RB+1
 228 009c 00000000 		.word	PB
 229 00a0 00000000 		.word	msg
 230 00a4 10000000 		.word	.LC1
ARM GAS  C:\Users\GONZAL~1\AppData\Local\Temp\ccC27lyg.s 			page 7


 231              		.cfi_endproc
 232              	.LFE67:
 233              		.size	ProcessCommandMsg, .-ProcessCommandMsg
 234              		.section	.text.main,"ax",%progbits
 235              		.align	2
 236              		.global	main
 237              		.thumb
 238              		.thumb_func
 239              		.type	main, %function
 240              	main:
 241              	.LFB65:
  51:main.c        **** 
 242              		.loc 1 51 0
 243              		.cfi_startproc
 244              		@ Volatile: function does not return.
 245              		@ args = 0, pretend = 0, frame = 0
 246              		@ frame_needed = 0, uses_anonymous_args = 0
 247 0000 08B5     		push	{r3, lr}
 248              		.cfi_def_cfa_offset 8
 249              		.cfi_offset 3, -8
 250              		.cfi_offset 14, -4
  53:main.c        ****     InitializeHardware();
 251              		.loc 1 53 0
 252              		.syntax unified
 253              	@ 53 "main.c" 1
 254 0002 62B6     		CPSIE   i
 255              	@ 0 "" 2
  54:main.c        ****     
 256              		.loc 1 54 0
 257              		.thumb
 258              		.syntax unified
 259 0004 FFF7FEFF 		bl	InitializeHardware
 260              	.LVL22:
 261 0008 04E0     		b	.L19
 262              	.L21:
  59:main.c        ****                 ProcessCommandMsg();
 263              		.loc 1 59 0
 264 000a FFF7FEFF 		bl	GetRxStr
 265              	.LVL23:
 266 000e 08B1     		cbz	r0, .L19
  60:main.c        ****             }   
 267              		.loc 1 60 0
 268 0010 FFF7FEFF 		bl	ProcessCommandMsg
 269              	.LVL24:
 270              	.L19:
  58:main.c        ****             if(GetRxStr()){
 271              		.loc 1 58 0
 272 0014 FFF7FEFF 		bl	IsCharReady
 273              	.LVL25:
 274 0018 0028     		cmp	r0, #0
 275 001a F6D1     		bne	.L21
  63:main.c        ****             TS_array = StoreResults();
 276              		.loc 1 63 0
 277 001c 0120     		movs	r0, #1
 278 001e FFF7FEFF 		bl	ADC_TS_IsEndConversion
 279              	.LVL26:
 280 0022 18B1     		cbz	r0, .L22
ARM GAS  C:\Users\GONZAL~1\AppData\Local\Temp\ccC27lyg.s 			page 8


  64:main.c        ****         }
 281              		.loc 1 64 0
 282 0024 FFF7FEFF 		bl	StoreResults
 283              	.LVL27:
 284 0028 094B     		ldr	r3, .L24
 285 002a 1860     		str	r0, [r3]
 286              	.L22:
  66:main.c        ****         UART_PutString(msg);
 287              		.loc 1 66 0
 288 002c 084B     		ldr	r3, .L24
 289 002e 1A68     		ldr	r2, [r3]
 290 0030 084C     		ldr	r4, .L24+4
 291 0032 B2F90230 		ldrsh	r3, [r2, #2]
 292 0036 B2F90020 		ldrsh	r2, [r2]
 293 003a 0749     		ldr	r1, .L24+8
 294 003c 2046     		mov	r0, r4
 295 003e FFF7FEFF 		bl	sprintf
 296              	.LVL28:
  67:main.c        ****         CyDelay(10);
 297              		.loc 1 67 0
 298 0042 2046     		mov	r0, r4
 299 0044 FFF7FEFF 		bl	UART_PutString
 300              	.LVL29:
  68:main.c        ****     }
 301              		.loc 1 68 0
 302 0048 0A20     		movs	r0, #10
 303 004a FFF7FEFF 		bl	CyDelay
 304              	.LVL30:
  69:main.c        **** }
 305              		.loc 1 69 0
 306 004e E1E7     		b	.L19
 307              	.L25:
 308              		.align	2
 309              	.L24:
 310 0050 00000000 		.word	TS_array
 311 0054 00000000 		.word	msg
 312 0058 1C000000 		.word	.LC2
 313              		.cfi_endproc
 314              	.LFE65:
 315              		.size	main, .-main
 316              		.comm	TS_array,4,4
 317              		.comm	PB,16,4
 318              		.comm	msg,16,4
 319              		.comm	RB,20,4
 320              		.section	.rodata.str1.4,"aMS",%progbits,1
 321              		.align	2
 322              	.LC0:
 323 0000 26554152 		.ascii	"&UART Test\015\012\000"
 323      54205465 
 323      73740D0A 
 323      00
 324 000d 000000   		.space	3
 325              	.LC1:
 326 0010 2625633A 		.ascii	"&%c: %s\015\012\000"
 326      2025730D 
 326      0A00
 327 001a 0000     		.space	2
ARM GAS  C:\Users\GONZAL~1\AppData\Local\Temp\ccC27lyg.s 			page 9


 328              	.LC2:
 329 001c 313A2025 		.ascii	"1: %d\0112: %d\015\012\000"
 329      6409323A 
 329      2025640D 
 329      0A00
 330              		.bss
 331              		.align	2
 332              		.set	.LANCHOR0,. + 0
 333              		.type	dest.7047, %object
 334              		.size	dest.7047, 12
 335              	dest.7047:
 336 0000 00000000 		.space	12
 336      00000000 
 336      00000000 
 337              		.text
 338              	.Letext0:
 339              		.file 2 "c:\\program files (x86)\\cypress\\psoc creator\\4.1\\psoc creator\\import\\gnu\\arm\\5.4.
 340              		.file 3 "c:\\program files (x86)\\cypress\\psoc creator\\4.1\\psoc creator\\import\\gnu\\arm\\5.4.
 341              		.file 4 "Generated_Source\\PSoC5/cytypes.h"
 342              		.file 5 "myUART.h"
 343              		.file 6 "Generated_Source\\PSoC5/core_cm3.h"
 344              		.file 7 "Generated_Source\\PSoC5/RxInt.h"
 345              		.file 8 "Generated_Source\\PSoC5/ADC_TS_IRQ.h"
 346              		.file 9 "Generated_Source\\PSoC5/ADC_TS.h"
 347              		.file 10 "Generated_Source\\PSoC5/UART.h"
 348              		.file 11 "Generated_Source\\PSoC5/CyLib.h"
 349              		.file 12 "c:\\program files (x86)\\cypress\\psoc creator\\4.1\\psoc creator\\import\\gnu\\arm\\5.4
 350              		.file 13 "c:\\program files (x86)\\cypress\\psoc creator\\4.1\\psoc creator\\import\\gnu\\arm\\5.4