ARM GAS  C:\Users\xx\AppData\Local\Temp\ccqyDTDR.s 			page 1


   1              		.syntax unified
   2              		.cpu cortex-m3
   3              		.fpu softvfp
   4              		.eabi_attribute 20, 1
   5              		.eabi_attribute 21, 1
   6              		.eabi_attribute 23, 3
   7              		.eabi_attribute 24, 1
   8              		.eabi_attribute 25, 1
   9              		.eabi_attribute 26, 1
  10              		.eabi_attribute 30, 1
  11              		.eabi_attribute 34, 1
  12              		.eabi_attribute 18, 4
  13              		.thumb
  14              		.syntax unified
  15              		.file	"myUART.c"
  16              		.text
  17              	.Ltext0:
  18              		.cfi_sections	.debug_frame
  19              		.section	.text.MyRxInt,"ax",%progbits
  20              		.align	2
  21              		.global	MyRxInt
  22              		.thumb
  23              		.thumb_func
  24              		.type	MyRxInt, %function
  25              	MyRxInt:
  26              	.LFB63:
  27              		.file 1 "myUART.c"
   1:myUART.c      **** /* ========================================
   2:myUART.c      ****  *
   3:myUART.c      ****  * Copyright YOUR COMPANY, THE YEAR
   4:myUART.c      ****  * All Rights Reserved
   5:myUART.c      ****  * UNPUBLISHED, LICENSED SOFTWARE.
   6:myUART.c      ****  *
   7:myUART.c      ****  * CONFIDENTIAL AND PROPRIETARY INFORMATION
   8:myUART.c      ****  * WHICH IS THE PROPERTY OF your company.
   9:myUART.c      ****  *
  10:myUART.c      ****  * ========================================
  11:myUART.c      **** */
  12:myUART.c      **** 
  13:myUART.c      **** #include "myUART.h"
  14:myUART.c      **** 
  15:myUART.c      **** uint8	RxBuffer[RxBufferSize];     // Rx circular buffer to hold all incoming command
  16:myUART.c      **** uint8  *RxReadIndex	 = RxBuffer;    // pointer to position in RxBuffer to write incoming Rx bytes
  17:myUART.c      **** uint8  *RxWriteIndex = RxBuffer;    // pointer to position in RxBuffer to read and process bytes
  18:myUART.c      **** 
  19:myUART.c      **** char   *RxStrIndex = RB.RxStr;      // pointer to command string buffer (processed messages)
  20:myUART.c      ****                                     // each Rx command consists of: <byte command><string value><CR
  21:myUART.c      **** volatile uint8 measurement_done = 0;
  22:myUART.c      **** //===========================================================================
  23:myUART.c      **** 
  24:myUART.c      **** CY_ISR(MyRxInt) //interrupt on Rx byte received
  25:myUART.c      **** {   
  28              		.loc 1 25 0
  29              		.cfi_startproc
  30              		@ args = 0, pretend = 0, frame = 0
  31              		@ frame_needed = 0, uses_anonymous_args = 0
  32 0000 38B5     		push	{r3, r4, r5, lr}
ARM GAS  C:\Users\xx\AppData\Local\Temp\ccqyDTDR.s 			page 2


  33              		.cfi_def_cfa_offset 16
  34              		.cfi_offset 3, -16
  35              		.cfi_offset 4, -12
  36              		.cfi_offset 5, -8
  37              		.cfi_offset 14, -4
  26:myUART.c      ****     //move all available characters from Rx queue to RxBuffer
  27:myUART.c      ****     while(UART_ReadRxStatus() & UART_RX_STS_FIFO_NOTEMPTY)
  38              		.loc 1 27 0
  39 0002 0DE0     		b	.L3
  40              	.L4:
  28:myUART.c      **** 	{
  29:myUART.c      **** 		*RxWriteIndex++ = UART_ReadRxData();
  41              		.loc 1 29 0
  42 0004 094C     		ldr	r4, .L6
  43 0006 2568     		ldr	r5, [r4]
  44 0008 6B1C     		adds	r3, r5, #1
  45 000a 2360     		str	r3, [r4]
  46 000c FFF7FEFF 		bl	UART_ReadRxData
  47              	.LVL0:
  48 0010 2870     		strb	r0, [r5]
  30:myUART.c      **** 		if (RxWriteIndex >= RxBuffer + RxBufferSize) RxWriteIndex = RxBuffer;      
  49              		.loc 1 30 0
  50 0012 2268     		ldr	r2, [r4]
  51 0014 064B     		ldr	r3, .L6+4
  52 0016 9A42     		cmp	r2, r3
  53 0018 02D3     		bcc	.L3
  54              		.loc 1 30 0 is_stmt 0 discriminator 1
  55 001a A3F18002 		sub	r2, r3, #128
  56 001e 2260     		str	r2, [r4]
  57              	.L3:
  27:myUART.c      **** 	{
  58              		.loc 1 27 0 is_stmt 1
  59 0020 FFF7FEFF 		bl	UART_ReadRxStatus
  60              	.LVL1:
  61 0024 10F0200F 		tst	r0, #32
  62 0028 ECD1     		bne	.L4
  31:myUART.c      **** 	}   
  32:myUART.c      **** }
  63              		.loc 1 32 0
  64 002a 38BD     		pop	{r3, r4, r5, pc}
  65              	.L7:
  66              		.align	2
  67              	.L6:
  68 002c 00000000 		.word	.LANCHOR0
  69 0030 80000000 		.word	RxBuffer+128
  70              		.cfi_endproc
  71              	.LFE63:
  72              		.size	MyRxInt, .-MyRxInt
  73              		.section	.text.IsCharReady,"ax",%progbits
  74              		.align	2
  75              		.global	IsCharReady
  76              		.thumb
  77              		.thumb_func
  78              		.type	IsCharReady, %function
  79              	IsCharReady:
  80              	.LFB64:
  33:myUART.c      **** 
ARM GAS  C:\Users\xx\AppData\Local\Temp\ccqyDTDR.s 			page 3


  34:myUART.c      **** //===========================================================================
  35:myUART.c      **** uint8 IsCharReady(void) 
  36:myUART.c      **** {
  81              		.loc 1 36 0
  82              		.cfi_startproc
  83              		@ args = 0, pretend = 0, frame = 0
  84              		@ frame_needed = 0, uses_anonymous_args = 0
  85              		@ link register save eliminated.
  37:myUART.c      **** 	return !(RxWriteIndex == RxReadIndex);
  86              		.loc 1 37 0
  87 0000 034B     		ldr	r3, .L9
  88 0002 1868     		ldr	r0, [r3]
  89 0004 5B68     		ldr	r3, [r3, #4]
  38:myUART.c      **** }
  90              		.loc 1 38 0
  91 0006 C01A     		subs	r0, r0, r3
  92 0008 18BF     		it	ne
  93 000a 0120     		movne	r0, #1
  94 000c 7047     		bx	lr
  95              	.L10:
  96 000e 00BF     		.align	2
  97              	.L9:
  98 0010 00000000 		.word	.LANCHOR0
  99              		.cfi_endproc
 100              	.LFE64:
 101              		.size	IsCharReady, .-IsCharReady
 102              		.section	.text.GetRxStr,"ax",%progbits
 103              		.align	2
 104              		.global	GetRxStr
 105              		.thumb
 106              		.thumb_func
 107              		.type	GetRxStr, %function
 108              	GetRxStr:
 109              	.LFB65:
  39:myUART.c      **** 
  40:myUART.c      **** //===========================================================================
  41:myUART.c      **** 
  42:myUART.c      **** uint8 GetRxStr(void)
  43:myUART.c      **** {
 110              		.loc 1 43 0
 111              		.cfi_startproc
 112              		@ args = 0, pretend = 0, frame = 0
 113              		@ frame_needed = 0, uses_anonymous_args = 0
 114              		@ link register save eliminated.
 115              	.LVL2:
  44:myUART.c      ****     uint8 RxStr_flag = 0;
  45:myUART.c      ****     static uint8 Ch;//static?
  46:myUART.c      ****    
  47:myUART.c      **** 	Ch = *RxReadIndex++;       //read next char in buffer
 116              		.loc 1 47 0
 117 0000 1049     		ldr	r1, .L17
 118 0002 4B68     		ldr	r3, [r1, #4]
 119 0004 5A1C     		adds	r2, r3, #1
 120 0006 4A60     		str	r2, [r1, #4]
 121 0008 1B78     		ldrb	r3, [r3]	@ zero_extendqisi2
  48:myUART.c      ****     if (RxReadIndex >= RxBuffer + RxBufferSize) RxReadIndex = RxBuffer;
 122              		.loc 1 48 0
ARM GAS  C:\Users\xx\AppData\Local\Temp\ccqyDTDR.s 			page 4


 123 000a 0F49     		ldr	r1, .L17+4
 124 000c 8A42     		cmp	r2, r1
 125 000e 02D3     		bcc	.L12
 126              		.loc 1 48 0 is_stmt 0 discriminator 1
 127 0010 8039     		subs	r1, r1, #128
 128 0012 0C4A     		ldr	r2, .L17
 129 0014 5160     		str	r1, [r2, #4]
 130              	.L12:
  49:myUART.c      ****             
  50:myUART.c      ****     //if (Ch == EOM_char)
  51:myUART.c      ****     if ( (Ch == EOM_CR) || (Ch == EOM_LF) ) //any standard terminator
 131              		.loc 1 51 0 is_stmt 1
 132 0016 0D2B     		cmp	r3, #13
 133 0018 01D0     		beq	.L13
 134              		.loc 1 51 0 is_stmt 0 discriminator 1
 135 001a 0A2B     		cmp	r3, #10
 136 001c 09D1     		bne	.L14
 137              	.L13:
  52:myUART.c      ****     {
  53:myUART.c      ****         *RxStrIndex = 0;        //terminate string excluding EOM_char
 138              		.loc 1 53 0 is_stmt 1
 139 001e 094A     		ldr	r2, .L17
 140 0020 9368     		ldr	r3, [r2, #8]
 141 0022 0021     		movs	r1, #0
 142 0024 1970     		strb	r1, [r3]
  54:myUART.c      ****         RxStrIndex = RB.RxStr;  //reset pointer
 143              		.loc 1 54 0
 144 0026 094B     		ldr	r3, .L17+8
 145 0028 9360     		str	r3, [r2, #8]
  55:myUART.c      ****         if (strlen(RB.RxStr) > 0)//non-empty message received
 146              		.loc 1 55 0
 147 002a 1B78     		ldrb	r3, [r3]	@ zero_extendqisi2
 148 002c 43B9     		cbnz	r3, .L16
  44:myUART.c      ****     static uint8 Ch;//static?
 149              		.loc 1 44 0
 150 002e 0846     		mov	r0, r1
 151 0030 7047     		bx	lr
 152              	.L14:
  56:myUART.c      ****         {
  57:myUART.c      ****             RxStr_flag  = 1;    //set flag to process message
  58:myUART.c      ****         }   
  59:myUART.c      ****     }
  60:myUART.c      ****     else                        //string body char received
  61:myUART.c      ****     {
  62:myUART.c      ****         *RxStrIndex++ = Ch;     //build command message   
 153              		.loc 1 62 0
 154 0032 0449     		ldr	r1, .L17
 155 0034 8A68     		ldr	r2, [r1, #8]
 156 0036 501C     		adds	r0, r2, #1
 157 0038 8860     		str	r0, [r1, #8]
 158 003a 1370     		strb	r3, [r2]
  44:myUART.c      ****     static uint8 Ch;//static?
 159              		.loc 1 44 0
 160 003c 0020     		movs	r0, #0
 161 003e 7047     		bx	lr
 162              	.L16:
  57:myUART.c      ****         }   
ARM GAS  C:\Users\xx\AppData\Local\Temp\ccqyDTDR.s 			page 5


 163              		.loc 1 57 0
 164 0040 0120     		movs	r0, #1
 165              	.LVL3:
  63:myUART.c      ****         //todo: problem if first char is empty space
  64:myUART.c      ****     }   
  65:myUART.c      **** 
  66:myUART.c      ****     return RxStr_flag;        
  67:myUART.c      **** }
 166              		.loc 1 67 0
 167 0042 7047     		bx	lr
 168              	.L18:
 169              		.align	2
 170              	.L17:
 171 0044 00000000 		.word	.LANCHOR0
 172 0048 80000000 		.word	RxBuffer+128
 173 004c 00000000 		.word	RB
 174              		.cfi_endproc
 175              	.LFE65:
 176              		.size	GetRxStr, .-GetRxStr
 177              		.global	measurement_done
 178              		.global	RxStrIndex
 179              		.global	RxWriteIndex
 180              		.global	RxReadIndex
 181              		.comm	RxBuffer,128,4
 182              		.comm	RB,20,4
 183              		.data
 184              		.align	2
 185              		.set	.LANCHOR0,. + 0
 186              		.type	RxWriteIndex, %object
 187              		.size	RxWriteIndex, 4
 188              	RxWriteIndex:
 189 0000 00000000 		.word	RxBuffer
 190              		.type	RxReadIndex, %object
 191              		.size	RxReadIndex, 4
 192              	RxReadIndex:
 193 0004 00000000 		.word	RxBuffer
 194              		.type	RxStrIndex, %object
 195              		.size	RxStrIndex, 4
 196              	RxStrIndex:
 197 0008 00000000 		.word	RB
 198              		.bss
 199              		.type	measurement_done, %object
 200              		.size	measurement_done, 1
 201              	measurement_done:
 202 0000 00       		.space	1
 203              		.text
 204              	.Letext0:
 205              		.file 2 "c:\\program files (x86)\\cypress\\psoc creator\\4.1\\psoc creator\\import\\gnu\\arm\\5.4.
 206              		.file 3 "c:\\program files (x86)\\cypress\\psoc creator\\4.1\\psoc creator\\import\\gnu\\arm\\5.4.
 207              		.file 4 "Generated_Source\\PSoC5/cytypes.h"
 208              		.file 5 "Generated_Source\\PSoC5/core_cm3.h"
 209              		.file 6 "Generated_Source\\PSoC5/UART.h"
 210              		.file 7 "myUART.h"